ARM GAS  C:\Users\Joknem\AppData\Local\Temp\ccvCWXA9.s 			page 1


   1              		.cpu cortex-m7
   2              		.eabi_attribute 28, 1
   3              		.eabi_attribute 20, 1
   4              		.eabi_attribute 21, 1
   5              		.eabi_attribute 23, 3
   6              		.eabi_attribute 24, 1
   7              		.eabi_attribute 25, 1
   8              		.eabi_attribute 26, 1
   9              		.eabi_attribute 30, 1
  10              		.eabi_attribute 34, 1
  11              		.eabi_attribute 18, 4
  12              		.file	"motor.c"
  13              		.text
  14              	.Ltext0:
  15              		.cfi_sections	.debug_frame
  16              		.section	.text.angle_detect,"ax",%progbits
  17              		.align	1
  18              		.global	angle_detect
  19              		.arch armv7e-m
  20              		.syntax unified
  21              		.thumb
  22              		.thumb_func
  23              		.fpu fpv5-d16
  25              	angle_detect:
  26              	.LVL0:
  27              	.LFB185:
  28              		.file 1 "User/Src/motor.c"
   1:User/Src/motor.c **** #include "motor.h"
   2:User/Src/motor.c **** #include "bsp_can.h"
   3:User/Src/motor.c **** #include "tim.h"
   4:User/Src/motor.c **** 
   5:User/Src/motor.c **** extern int count[3];
   6:User/Src/motor.c **** uint16_t status[3];
   7:User/Src/motor.c **** extern UART_HandleTypeDef huart1;
   8:User/Src/motor.c **** extern int uart_printf(char *fmt ,...);
   9:User/Src/motor.c **** float32_t offset[3];
  10:User/Src/motor.c **** 
  11:User/Src/motor.c **** volatile float32_t last_angle[3];
  12:User/Src/motor.c **** int init_circle[3];
  13:User/Src/motor.c **** float32_t init_angle[3];
  14:User/Src/motor.c **** int init_ok;
  15:User/Src/motor.c **** 
  16:User/Src/motor.c **** arm_pid_instance_f32 speed_pid[3] = {
  17:User/Src/motor.c **** 	{
  18:User/Src/motor.c **** 		.Kp = 10.0,
  19:User/Src/motor.c **** 		.Ki = 0.001,
  20:User/Src/motor.c **** 		.Kd = 0.0
  21:User/Src/motor.c **** 	},
  22:User/Src/motor.c **** 	{
  23:User/Src/motor.c **** 		.Kp = 10.0,
  24:User/Src/motor.c **** 		.Ki = 0.001,
  25:User/Src/motor.c **** 		.Kd = 10.5
  26:User/Src/motor.c **** 	},
  27:User/Src/motor.c **** 	{
  28:User/Src/motor.c **** 		.Kp = 10.0,
  29:User/Src/motor.c **** 		.Ki = 0.001,
  30:User/Src/motor.c **** 		.Kd = 10.5
ARM GAS  C:\Users\Joknem\AppData\Local\Temp\ccvCWXA9.s 			page 2


  31:User/Src/motor.c **** 	}
  32:User/Src/motor.c **** };
  33:User/Src/motor.c **** arm_pid_instance_f32 angle_pid[3] = {
  34:User/Src/motor.c **** 	{
  35:User/Src/motor.c **** 		.Kp = 15.0,
  36:User/Src/motor.c **** 		.Ki = 0.001,
  37:User/Src/motor.c **** 		.Kd = 10.0
  38:User/Src/motor.c **** 	},
  39:User/Src/motor.c **** 	{
  40:User/Src/motor.c **** 		.Kp = 15.0,
  41:User/Src/motor.c **** 		.Ki = 0.001,
  42:User/Src/motor.c **** 		.Kd = 5.0
  43:User/Src/motor.c **** 	},
  44:User/Src/motor.c **** 	{
  45:User/Src/motor.c **** 		.Kp = 15.0,
  46:User/Src/motor.c **** 		.Ki = 0.001,
  47:User/Src/motor.c **** 		.Kd = 10.0
  48:User/Src/motor.c **** 	}
  49:User/Src/motor.c **** };
  50:User/Src/motor.c **** void angle_detect(Motor *motor){
  29              		.loc 1 50 32 view -0
  30              		.cfi_startproc
  31              		@ args = 0, pretend = 0, frame = 0
  32              		@ frame_needed = 0, uses_anonymous_args = 0
  33              		.loc 1 50 32 is_stmt 0 view .LVU1
  34 0000 10B5     		push	{r4, lr}
  35              	.LCFI0:
  36              		.cfi_def_cfa_offset 8
  37              		.cfi_offset 4, -8
  38              		.cfi_offset 14, -4
  39 0002 0446     		mov	r4, r0
  51:User/Src/motor.c **** 	motor->circle = get_chassis_motor_measure_point(motor->id)->circle;
  40              		.loc 1 51 2 is_stmt 1 view .LVU2
  41              		.loc 1 51 18 is_stmt 0 view .LVU3
  42 0004 0078     		ldrb	r0, [r0]	@ zero_extendqisi2
  43              	.LVL1:
  44              		.loc 1 51 18 view .LVU4
  45 0006 FFF7FEFF 		bl	get_chassis_motor_measure_point
  46              	.LVL2:
  47              		.loc 1 51 60 view .LVU5
  48 000a B0F90A30 		ldrsh	r3, [r0, #10]
  49              		.loc 1 51 16 view .LVU6
  50 000e 2383     		strh	r3, [r4, #24]	@ movhi
  52:User/Src/motor.c **** } 
  51              		.loc 1 52 1 view .LVU7
  52 0010 10BD     		pop	{r4, pc}
  53              		.loc 1 52 1 view .LVU8
  54              		.cfi_endproc
  55              	.LFE185:
  57              		.section	.text.angle_control,"ax",%progbits
  58              		.align	1
  59              		.global	angle_control
  60              		.syntax unified
  61              		.thumb
  62              		.thumb_func
  63              		.fpu fpv5-d16
  65              	angle_control:
ARM GAS  C:\Users\Joknem\AppData\Local\Temp\ccvCWXA9.s 			page 3


  66              	.LVL3:
  67              	.LFB186:
  53:User/Src/motor.c **** void angle_control(Motor motor[]){
  68              		.loc 1 53 34 is_stmt 1 view -0
  69              		.cfi_startproc
  70              		@ args = 0, pretend = 0, frame = 48
  71              		@ frame_needed = 0, uses_anonymous_args = 0
  72              		.loc 1 53 34 is_stmt 0 view .LVU10
  73 0000 30B5     		push	{r4, r5, lr}
  74              	.LCFI1:
  75              		.cfi_def_cfa_offset 12
  76              		.cfi_offset 4, -12
  77              		.cfi_offset 5, -8
  78              		.cfi_offset 14, -4
  79 0002 8DB0     		sub	sp, sp, #52
  80              	.LCFI2:
  81              		.cfi_def_cfa_offset 64
  82 0004 0446     		mov	r4, r0
  54:User/Src/motor.c **** 	for(int i = 0;i < 3; i++){
  83              		.loc 1 54 2 is_stmt 1 view .LVU11
  84              	.LBB11:
  85              		.loc 1 54 6 view .LVU12
  86              	.LVL4:
  87              		.loc 1 54 10 is_stmt 0 view .LVU13
  88 0006 0025     		movs	r5, #0
  89              		.loc 1 54 2 view .LVU14
  90 0008 06E0     		b	.L4
  91              	.LVL5:
  92              	.L5:
  55:User/Src/motor.c **** 		angle_detect(motor+i);
  93              		.loc 1 55 3 is_stmt 1 discriminator 3 view .LVU15
  94              		.loc 1 55 21 is_stmt 0 discriminator 3 view .LVU16
  95 000a 05EBC500 		add	r0, r5, r5, lsl #3
  96              		.loc 1 55 3 discriminator 3 view .LVU17
  97 000e 04EB8000 		add	r0, r4, r0, lsl #2
  98 0012 FFF7FEFF 		bl	angle_detect
  99              	.LVL6:
  54:User/Src/motor.c **** 	for(int i = 0;i < 3; i++){
 100              		.loc 1 54 23 is_stmt 1 discriminator 3 view .LVU18
  54:User/Src/motor.c **** 	for(int i = 0;i < 3; i++){
 101              		.loc 1 54 24 is_stmt 0 discriminator 3 view .LVU19
 102 0016 0135     		adds	r5, r5, #1
 103              	.LVL7:
 104              	.L4:
  54:User/Src/motor.c **** 	for(int i = 0;i < 3; i++){
 105              		.loc 1 54 16 is_stmt 1 discriminator 1 view .LVU20
  54:User/Src/motor.c **** 	for(int i = 0;i < 3; i++){
 106              		.loc 1 54 2 is_stmt 0 discriminator 1 view .LVU21
 107 0018 022D     		cmp	r5, #2
 108 001a F6DD     		ble	.L5
 109              	.LBE11:
 110              	.LBB12:
  56:User/Src/motor.c **** 	}
  57:User/Src/motor.c **** 	float angle_err[3];
  58:User/Src/motor.c **** 	float angle_out[3];
  59:User/Src/motor.c **** 	float speed_err[3];
  60:User/Src/motor.c **** 	int16_t I_out[3];
ARM GAS  C:\Users\Joknem\AppData\Local\Temp\ccvCWXA9.s 			page 4


  61:User/Src/motor.c **** 	for(int i = 0; i < 3; i++){
 111              		.loc 1 61 10 view .LVU22
 112 001c 0021     		movs	r1, #0
 113 001e 07E0     		b	.L6
 114              	.LVL8:
 115              	.L9:
  62:User/Src/motor.c **** 	angle_err[i] = motor[i].target_angle - motor[i].absolute_angle;
  63:User/Src/motor.c **** 	angle_out[i] = arm_pid_f32(angle_pid+i, angle_err[i]);
  64:User/Src/motor.c **** 	speed_err[i] = angle_out[i] - motor[i].speed;
  65:User/Src/motor.c **** 	I_out[i] = (int16_t)(arm_pid_f32(&speed_pid[i],speed_err[i]));
  66:User/Src/motor.c **** 	I_out[i] = (I_out[i] > 10000) ? 10000 : (I_out[i] < -10000) ? -10000 : I_out[i];
 116              		.loc 1 66 11 view .LVU23
 117 0020 42F21073 		movw	r3, #10000
 118              	.L7:
 119              		.loc 1 66 11 discriminator 4 view .LVU24
 120 0024 0CAA     		add	r2, sp, #48
 121 0026 02EB4102 		add	r2, r2, r1, lsl #1
 122 002a 22F82C3C 		strh	r3, [r2, #-44]	@ movhi
  61:User/Src/motor.c **** 	angle_err[i] = motor[i].target_angle - motor[i].absolute_angle;
 123              		.loc 1 61 24 is_stmt 1 discriminator 4 view .LVU25
  61:User/Src/motor.c **** 	angle_err[i] = motor[i].target_angle - motor[i].absolute_angle;
 124              		.loc 1 61 25 is_stmt 0 discriminator 4 view .LVU26
 125 002e 0131     		adds	r1, r1, #1
 126              	.LVL9:
 127              	.L6:
  61:User/Src/motor.c **** 	angle_err[i] = motor[i].target_angle - motor[i].absolute_angle;
 128              		.loc 1 61 17 is_stmt 1 discriminator 2 view .LVU27
  61:User/Src/motor.c **** 	angle_err[i] = motor[i].target_angle - motor[i].absolute_angle;
 129              		.loc 1 61 2 is_stmt 0 discriminator 2 view .LVU28
 130 0030 0229     		cmp	r1, #2
 131 0032 6BDC     		bgt	.L11
  62:User/Src/motor.c **** 	angle_err[i] = motor[i].target_angle - motor[i].absolute_angle;
 132              		.loc 1 62 2 is_stmt 1 view .LVU29
  62:User/Src/motor.c **** 	angle_err[i] = motor[i].target_angle - motor[i].absolute_angle;
 133              		.loc 1 62 22 is_stmt 0 view .LVU30
 134 0034 01EBC105 		add	r5, r1, r1, lsl #3
 135 0038 04EB8500 		add	r0, r4, r5, lsl #2
  62:User/Src/motor.c **** 	angle_err[i] = motor[i].target_angle - motor[i].absolute_angle;
 136              		.loc 1 62 25 view .LVU31
 137 003c D0ED047A 		vldr.32	s15, [r0, #16]
  62:User/Src/motor.c **** 	angle_err[i] = motor[i].target_angle - motor[i].absolute_angle;
 138              		.loc 1 62 49 view .LVU32
 139 0040 90ED087A 		vldr.32	s14, [r0, #32]
  62:User/Src/motor.c **** 	angle_err[i] = motor[i].target_angle - motor[i].absolute_angle;
 140              		.loc 1 62 39 view .LVU33
 141 0044 77EEC77A 		vsub.f32	s15, s15, s14
  62:User/Src/motor.c **** 	angle_err[i] = motor[i].target_angle - motor[i].absolute_angle;
 142              		.loc 1 62 15 view .LVU34
 143 0048 0CAB     		add	r3, sp, #48
 144 004a 03EB8102 		add	r2, r3, r1, lsl #2
 145 004e 42ED037A 		vstr.32	s15, [r2, #-12]
  63:User/Src/motor.c **** 	speed_err[i] = angle_out[i] - motor[i].speed;
 146              		.loc 1 63 2 is_stmt 1 view .LVU35
  63:User/Src/motor.c **** 	speed_err[i] = angle_out[i] - motor[i].speed;
 147              		.loc 1 63 17 is_stmt 0 view .LVU36
 148 0052 344B     		ldr	r3, .L12
 149 0054 03EB8503 		add	r3, r3, r5, lsl #2
ARM GAS  C:\Users\Joknem\AppData\Local\Temp\ccvCWXA9.s 			page 5


 150              	.LVL10:
 151              	.LBB13:
 152              	.LBI13:
 153              		.file 2 "Drivers/CMSIS/DSP/Include/arm_math.h"
   1:Drivers/CMSIS/DSP/Include/arm_math.h **** /******************************************************************************
   2:Drivers/CMSIS/DSP/Include/arm_math.h ****  * @file     arm_math.h
   3:Drivers/CMSIS/DSP/Include/arm_math.h ****  * @brief    Public header file for CMSIS DSP Library
   4:Drivers/CMSIS/DSP/Include/arm_math.h ****  * @version  V1.6.0
   5:Drivers/CMSIS/DSP/Include/arm_math.h ****  * @date     18. March 2019
   6:Drivers/CMSIS/DSP/Include/arm_math.h ****  ******************************************************************************/
   7:Drivers/CMSIS/DSP/Include/arm_math.h **** /*
   8:Drivers/CMSIS/DSP/Include/arm_math.h ****  * Copyright (c) 2010-2019 Arm Limited or its affiliates. All rights reserved.
   9:Drivers/CMSIS/DSP/Include/arm_math.h ****  *
  10:Drivers/CMSIS/DSP/Include/arm_math.h ****  * SPDX-License-Identifier: Apache-2.0
  11:Drivers/CMSIS/DSP/Include/arm_math.h ****  *
  12:Drivers/CMSIS/DSP/Include/arm_math.h ****  * Licensed under the Apache License, Version 2.0 (the License); you may
  13:Drivers/CMSIS/DSP/Include/arm_math.h ****  * not use this file except in compliance with the License.
  14:Drivers/CMSIS/DSP/Include/arm_math.h ****  * You may obtain a copy of the License at
  15:Drivers/CMSIS/DSP/Include/arm_math.h ****  *
  16:Drivers/CMSIS/DSP/Include/arm_math.h ****  * www.apache.org/licenses/LICENSE-2.0
  17:Drivers/CMSIS/DSP/Include/arm_math.h ****  *
  18:Drivers/CMSIS/DSP/Include/arm_math.h ****  * Unless required by applicable law or agreed to in writing, software
  19:Drivers/CMSIS/DSP/Include/arm_math.h ****  * distributed under the License is distributed on an AS IS BASIS, WITHOUT
  20:Drivers/CMSIS/DSP/Include/arm_math.h ****  * WARRANTIES OR CONDITIONS OF ANY KIND, either express or implied.
  21:Drivers/CMSIS/DSP/Include/arm_math.h ****  * See the License for the specific language governing permissions and
  22:Drivers/CMSIS/DSP/Include/arm_math.h ****  * limitations under the License.
  23:Drivers/CMSIS/DSP/Include/arm_math.h ****  */
  24:Drivers/CMSIS/DSP/Include/arm_math.h **** 
  25:Drivers/CMSIS/DSP/Include/arm_math.h **** /**
  26:Drivers/CMSIS/DSP/Include/arm_math.h ****    \mainpage CMSIS DSP Software Library
  27:Drivers/CMSIS/DSP/Include/arm_math.h ****    *
  28:Drivers/CMSIS/DSP/Include/arm_math.h ****    * Introduction
  29:Drivers/CMSIS/DSP/Include/arm_math.h ****    * ------------
  30:Drivers/CMSIS/DSP/Include/arm_math.h ****    *
  31:Drivers/CMSIS/DSP/Include/arm_math.h ****    * This user manual describes the CMSIS DSP software library,
  32:Drivers/CMSIS/DSP/Include/arm_math.h ****    * a suite of common signal processing functions for use on Cortex-M processor based devices.
  33:Drivers/CMSIS/DSP/Include/arm_math.h ****    *
  34:Drivers/CMSIS/DSP/Include/arm_math.h ****    * The library is divided into a number of functions each covering a specific category:
  35:Drivers/CMSIS/DSP/Include/arm_math.h ****    * - Basic math functions
  36:Drivers/CMSIS/DSP/Include/arm_math.h ****    * - Fast math functions
  37:Drivers/CMSIS/DSP/Include/arm_math.h ****    * - Complex math functions
  38:Drivers/CMSIS/DSP/Include/arm_math.h ****    * - Filters
  39:Drivers/CMSIS/DSP/Include/arm_math.h ****    * - Matrix functions
  40:Drivers/CMSIS/DSP/Include/arm_math.h ****    * - Transform functions
  41:Drivers/CMSIS/DSP/Include/arm_math.h ****    * - Motor control functions
  42:Drivers/CMSIS/DSP/Include/arm_math.h ****    * - Statistical functions
  43:Drivers/CMSIS/DSP/Include/arm_math.h ****    * - Support functions
  44:Drivers/CMSIS/DSP/Include/arm_math.h ****    * - Interpolation functions
  45:Drivers/CMSIS/DSP/Include/arm_math.h ****    *
  46:Drivers/CMSIS/DSP/Include/arm_math.h ****    * The library has separate functions for operating on 8-bit integers, 16-bit integers,
  47:Drivers/CMSIS/DSP/Include/arm_math.h ****    * 32-bit integer and 32-bit floating-point values.
  48:Drivers/CMSIS/DSP/Include/arm_math.h ****    *
  49:Drivers/CMSIS/DSP/Include/arm_math.h ****    * Using the Library
  50:Drivers/CMSIS/DSP/Include/arm_math.h ****    * ------------
  51:Drivers/CMSIS/DSP/Include/arm_math.h ****    *
  52:Drivers/CMSIS/DSP/Include/arm_math.h ****    * The library installer contains prebuilt versions of the libraries in the <code>Lib</code> fold
  53:Drivers/CMSIS/DSP/Include/arm_math.h ****    * - arm_cortexM7lfdp_math.lib (Cortex-M7, Little endian, Double Precision Floating Point Unit)
ARM GAS  C:\Users\Joknem\AppData\Local\Temp\ccvCWXA9.s 			page 6


  54:Drivers/CMSIS/DSP/Include/arm_math.h ****    * - arm_cortexM7bfdp_math.lib (Cortex-M7, Big endian, Double Precision Floating Point Unit)
  55:Drivers/CMSIS/DSP/Include/arm_math.h ****    * - arm_cortexM7lfsp_math.lib (Cortex-M7, Little endian, Single Precision Floating Point Unit)
  56:Drivers/CMSIS/DSP/Include/arm_math.h ****    * - arm_cortexM7bfsp_math.lib (Cortex-M7, Big endian and Single Precision Floating Point Unit on
  57:Drivers/CMSIS/DSP/Include/arm_math.h ****    * - arm_cortexM7l_math.lib (Cortex-M7, Little endian)
  58:Drivers/CMSIS/DSP/Include/arm_math.h ****    * - arm_cortexM7b_math.lib (Cortex-M7, Big endian)
  59:Drivers/CMSIS/DSP/Include/arm_math.h ****    * - arm_cortexM4lf_math.lib (Cortex-M4, Little endian, Floating Point Unit)
  60:Drivers/CMSIS/DSP/Include/arm_math.h ****    * - arm_cortexM4bf_math.lib (Cortex-M4, Big endian, Floating Point Unit)
  61:Drivers/CMSIS/DSP/Include/arm_math.h ****    * - arm_cortexM4l_math.lib (Cortex-M4, Little endian)
  62:Drivers/CMSIS/DSP/Include/arm_math.h ****    * - arm_cortexM4b_math.lib (Cortex-M4, Big endian)
  63:Drivers/CMSIS/DSP/Include/arm_math.h ****    * - arm_cortexM3l_math.lib (Cortex-M3, Little endian)
  64:Drivers/CMSIS/DSP/Include/arm_math.h ****    * - arm_cortexM3b_math.lib (Cortex-M3, Big endian)
  65:Drivers/CMSIS/DSP/Include/arm_math.h ****    * - arm_cortexM0l_math.lib (Cortex-M0 / Cortex-M0+, Little endian)
  66:Drivers/CMSIS/DSP/Include/arm_math.h ****    * - arm_cortexM0b_math.lib (Cortex-M0 / Cortex-M0+, Big endian)
  67:Drivers/CMSIS/DSP/Include/arm_math.h ****    * - arm_ARMv8MBLl_math.lib (Armv8-M Baseline, Little endian)
  68:Drivers/CMSIS/DSP/Include/arm_math.h ****    * - arm_ARMv8MMLl_math.lib (Armv8-M Mainline, Little endian)
  69:Drivers/CMSIS/DSP/Include/arm_math.h ****    * - arm_ARMv8MMLlfsp_math.lib (Armv8-M Mainline, Little endian, Single Precision Floating Point 
  70:Drivers/CMSIS/DSP/Include/arm_math.h ****    * - arm_ARMv8MMLld_math.lib (Armv8-M Mainline, Little endian, DSP instructions)
  71:Drivers/CMSIS/DSP/Include/arm_math.h ****    * - arm_ARMv8MMLldfsp_math.lib (Armv8-M Mainline, Little endian, DSP instructions, Single Precis
  72:Drivers/CMSIS/DSP/Include/arm_math.h ****    *
  73:Drivers/CMSIS/DSP/Include/arm_math.h ****    * The library functions are declared in the public file <code>arm_math.h</code> which is placed 
  74:Drivers/CMSIS/DSP/Include/arm_math.h ****    * Simply include this file and link the appropriate library in the application and begin calling
  75:Drivers/CMSIS/DSP/Include/arm_math.h ****    * public header file <code> arm_math.h</code> for Cortex-M cores with little endian and big endi
  76:Drivers/CMSIS/DSP/Include/arm_math.h ****    *
  77:Drivers/CMSIS/DSP/Include/arm_math.h ****    *
  78:Drivers/CMSIS/DSP/Include/arm_math.h ****    * Examples
  79:Drivers/CMSIS/DSP/Include/arm_math.h ****    * --------
  80:Drivers/CMSIS/DSP/Include/arm_math.h ****    *
  81:Drivers/CMSIS/DSP/Include/arm_math.h ****    * The library ships with a number of examples which demonstrate how to use the library functions
  82:Drivers/CMSIS/DSP/Include/arm_math.h ****    *
  83:Drivers/CMSIS/DSP/Include/arm_math.h ****    * Toolchain Support
  84:Drivers/CMSIS/DSP/Include/arm_math.h ****    * ------------
  85:Drivers/CMSIS/DSP/Include/arm_math.h ****    *
  86:Drivers/CMSIS/DSP/Include/arm_math.h ****    * The library has been developed and tested with MDK version 5.14.0.0
  87:Drivers/CMSIS/DSP/Include/arm_math.h ****    * The library is being tested in GCC and IAR toolchains and updates on this activity will be mad
  88:Drivers/CMSIS/DSP/Include/arm_math.h ****    *
  89:Drivers/CMSIS/DSP/Include/arm_math.h ****    * Building the Library
  90:Drivers/CMSIS/DSP/Include/arm_math.h ****    * ------------
  91:Drivers/CMSIS/DSP/Include/arm_math.h ****    *
  92:Drivers/CMSIS/DSP/Include/arm_math.h ****    * The library installer contains a project file to rebuild libraries on MDK toolchain in the <co
  93:Drivers/CMSIS/DSP/Include/arm_math.h ****    * - arm_cortexM_math.uvprojx
  94:Drivers/CMSIS/DSP/Include/arm_math.h ****    *
  95:Drivers/CMSIS/DSP/Include/arm_math.h ****    *
  96:Drivers/CMSIS/DSP/Include/arm_math.h ****    * The libraries can be built by opening the arm_cortexM_math.uvprojx project in MDK-ARM, selecti
  97:Drivers/CMSIS/DSP/Include/arm_math.h ****    *
  98:Drivers/CMSIS/DSP/Include/arm_math.h ****    * Preprocessor Macros
  99:Drivers/CMSIS/DSP/Include/arm_math.h ****    * ------------
 100:Drivers/CMSIS/DSP/Include/arm_math.h ****    *
 101:Drivers/CMSIS/DSP/Include/arm_math.h ****    * Each library project have different preprocessor macros.
 102:Drivers/CMSIS/DSP/Include/arm_math.h ****    *
 103:Drivers/CMSIS/DSP/Include/arm_math.h ****    * - ARM_MATH_BIG_ENDIAN:
 104:Drivers/CMSIS/DSP/Include/arm_math.h ****    *
 105:Drivers/CMSIS/DSP/Include/arm_math.h ****    * Define macro ARM_MATH_BIG_ENDIAN to build the library for big endian targets. By default libra
 106:Drivers/CMSIS/DSP/Include/arm_math.h ****    *
 107:Drivers/CMSIS/DSP/Include/arm_math.h ****    * - ARM_MATH_MATRIX_CHECK:
 108:Drivers/CMSIS/DSP/Include/arm_math.h ****    *
 109:Drivers/CMSIS/DSP/Include/arm_math.h ****    * Define macro ARM_MATH_MATRIX_CHECK for checking on the input and output sizes of matrices
 110:Drivers/CMSIS/DSP/Include/arm_math.h ****    *
ARM GAS  C:\Users\Joknem\AppData\Local\Temp\ccvCWXA9.s 			page 7


 111:Drivers/CMSIS/DSP/Include/arm_math.h ****    * - ARM_MATH_ROUNDING:
 112:Drivers/CMSIS/DSP/Include/arm_math.h ****    *
 113:Drivers/CMSIS/DSP/Include/arm_math.h ****    * Define macro ARM_MATH_ROUNDING for rounding on support functions
 114:Drivers/CMSIS/DSP/Include/arm_math.h ****    *
 115:Drivers/CMSIS/DSP/Include/arm_math.h ****    * - ARM_MATH_LOOPUNROLL:
 116:Drivers/CMSIS/DSP/Include/arm_math.h ****    *
 117:Drivers/CMSIS/DSP/Include/arm_math.h ****    * Define macro ARM_MATH_LOOPUNROLL to enable manual loop unrolling in DSP functions
 118:Drivers/CMSIS/DSP/Include/arm_math.h ****    *
 119:Drivers/CMSIS/DSP/Include/arm_math.h ****    * - ARM_MATH_NEON:
 120:Drivers/CMSIS/DSP/Include/arm_math.h ****    *
 121:Drivers/CMSIS/DSP/Include/arm_math.h ****    * Define macro ARM_MATH_NEON to enable Neon versions of the DSP functions.
 122:Drivers/CMSIS/DSP/Include/arm_math.h ****    * It is not enabled by default when Neon is available because performances are 
 123:Drivers/CMSIS/DSP/Include/arm_math.h ****    * dependent on the compiler and target architecture.
 124:Drivers/CMSIS/DSP/Include/arm_math.h ****    *
 125:Drivers/CMSIS/DSP/Include/arm_math.h ****    * - ARM_MATH_NEON_EXPERIMENTAL:
 126:Drivers/CMSIS/DSP/Include/arm_math.h ****    *
 127:Drivers/CMSIS/DSP/Include/arm_math.h ****    * Define macro ARM_MATH_NEON_EXPERIMENTAL to enable experimental Neon versions of 
 128:Drivers/CMSIS/DSP/Include/arm_math.h ****    * of some DSP functions. Experimental Neon versions currently do not have better
 129:Drivers/CMSIS/DSP/Include/arm_math.h ****    * performances than the scalar versions.
 130:Drivers/CMSIS/DSP/Include/arm_math.h ****    *
 131:Drivers/CMSIS/DSP/Include/arm_math.h ****    * <hr>
 132:Drivers/CMSIS/DSP/Include/arm_math.h ****    * CMSIS-DSP in ARM::CMSIS Pack
 133:Drivers/CMSIS/DSP/Include/arm_math.h ****    * -----------------------------
 134:Drivers/CMSIS/DSP/Include/arm_math.h ****    *
 135:Drivers/CMSIS/DSP/Include/arm_math.h ****    * The following files relevant to CMSIS-DSP are present in the <b>ARM::CMSIS</b> Pack directorie
 136:Drivers/CMSIS/DSP/Include/arm_math.h ****    * |File/Folder                      |Content                                                    
 137:Drivers/CMSIS/DSP/Include/arm_math.h ****    * |---------------------------------|-----------------------------------------------------------
 138:Drivers/CMSIS/DSP/Include/arm_math.h ****    * |\b CMSIS\\Documentation\\DSP     | This documentation                                        
 139:Drivers/CMSIS/DSP/Include/arm_math.h ****    * |\b CMSIS\\DSP\\DSP_Lib_TestSuite | DSP_Lib test suite                                        
 140:Drivers/CMSIS/DSP/Include/arm_math.h ****    * |\b CMSIS\\DSP\\Examples          | Example projects demonstrating the usage of the library fu
 141:Drivers/CMSIS/DSP/Include/arm_math.h ****    * |\b CMSIS\\DSP\\Include           | DSP_Lib include files                                     
 142:Drivers/CMSIS/DSP/Include/arm_math.h ****    * |\b CMSIS\\DSP\\Lib               | DSP_Lib binaries                                          
 143:Drivers/CMSIS/DSP/Include/arm_math.h ****    * |\b CMSIS\\DSP\\Projects          | Projects to rebuild DSP_Lib binaries                      
 144:Drivers/CMSIS/DSP/Include/arm_math.h ****    * |\b CMSIS\\DSP\\Source            | DSP_Lib source files                                      
 145:Drivers/CMSIS/DSP/Include/arm_math.h ****    *
 146:Drivers/CMSIS/DSP/Include/arm_math.h ****    * <hr>
 147:Drivers/CMSIS/DSP/Include/arm_math.h ****    * Revision History of CMSIS-DSP
 148:Drivers/CMSIS/DSP/Include/arm_math.h ****    * ------------
 149:Drivers/CMSIS/DSP/Include/arm_math.h ****    * Please refer to \ref ChangeLog_pg.
 150:Drivers/CMSIS/DSP/Include/arm_math.h ****    */
 151:Drivers/CMSIS/DSP/Include/arm_math.h **** 
 152:Drivers/CMSIS/DSP/Include/arm_math.h **** 
 153:Drivers/CMSIS/DSP/Include/arm_math.h **** /**
 154:Drivers/CMSIS/DSP/Include/arm_math.h ****  * @defgroup groupMath Basic Math Functions
 155:Drivers/CMSIS/DSP/Include/arm_math.h ****  */
 156:Drivers/CMSIS/DSP/Include/arm_math.h **** 
 157:Drivers/CMSIS/DSP/Include/arm_math.h **** /**
 158:Drivers/CMSIS/DSP/Include/arm_math.h ****  * @defgroup groupFastMath Fast Math Functions
 159:Drivers/CMSIS/DSP/Include/arm_math.h ****  * This set of functions provides a fast approximation to sine, cosine, and square root.
 160:Drivers/CMSIS/DSP/Include/arm_math.h ****  * As compared to most of the other functions in the CMSIS math library, the fast math functions
 161:Drivers/CMSIS/DSP/Include/arm_math.h ****  * operate on individual values and not arrays.
 162:Drivers/CMSIS/DSP/Include/arm_math.h ****  * There are separate functions for Q15, Q31, and floating-point data.
 163:Drivers/CMSIS/DSP/Include/arm_math.h ****  *
 164:Drivers/CMSIS/DSP/Include/arm_math.h ****  */
 165:Drivers/CMSIS/DSP/Include/arm_math.h **** 
 166:Drivers/CMSIS/DSP/Include/arm_math.h **** /**
 167:Drivers/CMSIS/DSP/Include/arm_math.h ****  * @defgroup groupCmplxMath Complex Math Functions
ARM GAS  C:\Users\Joknem\AppData\Local\Temp\ccvCWXA9.s 			page 8


 168:Drivers/CMSIS/DSP/Include/arm_math.h ****  * This set of functions operates on complex data vectors.
 169:Drivers/CMSIS/DSP/Include/arm_math.h ****  * The data in the complex arrays is stored in an interleaved fashion
 170:Drivers/CMSIS/DSP/Include/arm_math.h ****  * (real, imag, real, imag, ...).
 171:Drivers/CMSIS/DSP/Include/arm_math.h ****  * In the API functions, the number of samples in a complex array refers
 172:Drivers/CMSIS/DSP/Include/arm_math.h ****  * to the number of complex values; the array contains twice this number of
 173:Drivers/CMSIS/DSP/Include/arm_math.h ****  * real values.
 174:Drivers/CMSIS/DSP/Include/arm_math.h ****  */
 175:Drivers/CMSIS/DSP/Include/arm_math.h **** 
 176:Drivers/CMSIS/DSP/Include/arm_math.h **** /**
 177:Drivers/CMSIS/DSP/Include/arm_math.h ****  * @defgroup groupFilters Filtering Functions
 178:Drivers/CMSIS/DSP/Include/arm_math.h ****  */
 179:Drivers/CMSIS/DSP/Include/arm_math.h **** 
 180:Drivers/CMSIS/DSP/Include/arm_math.h **** /**
 181:Drivers/CMSIS/DSP/Include/arm_math.h ****  * @defgroup groupMatrix Matrix Functions
 182:Drivers/CMSIS/DSP/Include/arm_math.h ****  *
 183:Drivers/CMSIS/DSP/Include/arm_math.h ****  * This set of functions provides basic matrix math operations.
 184:Drivers/CMSIS/DSP/Include/arm_math.h ****  * The functions operate on matrix data structures.  For example,
 185:Drivers/CMSIS/DSP/Include/arm_math.h ****  * the type
 186:Drivers/CMSIS/DSP/Include/arm_math.h ****  * definition for the floating-point matrix structure is shown
 187:Drivers/CMSIS/DSP/Include/arm_math.h ****  * below:
 188:Drivers/CMSIS/DSP/Include/arm_math.h ****  * <pre>
 189:Drivers/CMSIS/DSP/Include/arm_math.h ****  *     typedef struct
 190:Drivers/CMSIS/DSP/Include/arm_math.h ****  *     {
 191:Drivers/CMSIS/DSP/Include/arm_math.h ****  *       uint16_t numRows;     // number of rows of the matrix.
 192:Drivers/CMSIS/DSP/Include/arm_math.h ****  *       uint16_t numCols;     // number of columns of the matrix.
 193:Drivers/CMSIS/DSP/Include/arm_math.h ****  *       float32_t *pData;     // points to the data of the matrix.
 194:Drivers/CMSIS/DSP/Include/arm_math.h ****  *     } arm_matrix_instance_f32;
 195:Drivers/CMSIS/DSP/Include/arm_math.h ****  * </pre>
 196:Drivers/CMSIS/DSP/Include/arm_math.h ****  * There are similar definitions for Q15 and Q31 data types.
 197:Drivers/CMSIS/DSP/Include/arm_math.h ****  *
 198:Drivers/CMSIS/DSP/Include/arm_math.h ****  * The structure specifies the size of the matrix and then points to
 199:Drivers/CMSIS/DSP/Include/arm_math.h ****  * an array of data.  The array is of size <code>numRows X numCols</code>
 200:Drivers/CMSIS/DSP/Include/arm_math.h ****  * and the values are arranged in row order.  That is, the
 201:Drivers/CMSIS/DSP/Include/arm_math.h ****  * matrix element (i, j) is stored at:
 202:Drivers/CMSIS/DSP/Include/arm_math.h ****  * <pre>
 203:Drivers/CMSIS/DSP/Include/arm_math.h ****  *     pData[i*numCols + j]
 204:Drivers/CMSIS/DSP/Include/arm_math.h ****  * </pre>
 205:Drivers/CMSIS/DSP/Include/arm_math.h ****  *
 206:Drivers/CMSIS/DSP/Include/arm_math.h ****  * \par Init Functions
 207:Drivers/CMSIS/DSP/Include/arm_math.h ****  * There is an associated initialization function for each type of matrix
 208:Drivers/CMSIS/DSP/Include/arm_math.h ****  * data structure.
 209:Drivers/CMSIS/DSP/Include/arm_math.h ****  * The initialization function sets the values of the internal structure fields.
 210:Drivers/CMSIS/DSP/Include/arm_math.h ****  * Refer to \ref arm_mat_init_f32(), \ref arm_mat_init_q31() and \ref arm_mat_init_q15()
 211:Drivers/CMSIS/DSP/Include/arm_math.h ****  * for floating-point, Q31 and Q15 types,  respectively.
 212:Drivers/CMSIS/DSP/Include/arm_math.h ****  *
 213:Drivers/CMSIS/DSP/Include/arm_math.h ****  * \par
 214:Drivers/CMSIS/DSP/Include/arm_math.h ****  * Use of the initialization function is optional. However, if initialization function is used
 215:Drivers/CMSIS/DSP/Include/arm_math.h ****  * then the instance structure cannot be placed into a const data section.
 216:Drivers/CMSIS/DSP/Include/arm_math.h ****  * To place the instance structure in a const data
 217:Drivers/CMSIS/DSP/Include/arm_math.h ****  * section, manually initialize the data structure.  For example:
 218:Drivers/CMSIS/DSP/Include/arm_math.h ****  * <pre>
 219:Drivers/CMSIS/DSP/Include/arm_math.h ****  * <code>arm_matrix_instance_f32 S = {nRows, nColumns, pData};</code>
 220:Drivers/CMSIS/DSP/Include/arm_math.h ****  * <code>arm_matrix_instance_q31 S = {nRows, nColumns, pData};</code>
 221:Drivers/CMSIS/DSP/Include/arm_math.h ****  * <code>arm_matrix_instance_q15 S = {nRows, nColumns, pData};</code>
 222:Drivers/CMSIS/DSP/Include/arm_math.h ****  * </pre>
 223:Drivers/CMSIS/DSP/Include/arm_math.h ****  * where <code>nRows</code> specifies the number of rows, <code>nColumns</code>
 224:Drivers/CMSIS/DSP/Include/arm_math.h ****  * specifies the number of columns, and <code>pData</code> points to the
ARM GAS  C:\Users\Joknem\AppData\Local\Temp\ccvCWXA9.s 			page 9


 225:Drivers/CMSIS/DSP/Include/arm_math.h ****  * data array.
 226:Drivers/CMSIS/DSP/Include/arm_math.h ****  *
 227:Drivers/CMSIS/DSP/Include/arm_math.h ****  * \par Size Checking
 228:Drivers/CMSIS/DSP/Include/arm_math.h ****  * By default all of the matrix functions perform size checking on the input and
 229:Drivers/CMSIS/DSP/Include/arm_math.h ****  * output matrices. For example, the matrix addition function verifies that the
 230:Drivers/CMSIS/DSP/Include/arm_math.h ****  * two input matrices and the output matrix all have the same number of rows and
 231:Drivers/CMSIS/DSP/Include/arm_math.h ****  * columns. If the size check fails the functions return:
 232:Drivers/CMSIS/DSP/Include/arm_math.h ****  * <pre>
 233:Drivers/CMSIS/DSP/Include/arm_math.h ****  *     ARM_MATH_SIZE_MISMATCH
 234:Drivers/CMSIS/DSP/Include/arm_math.h ****  * </pre>
 235:Drivers/CMSIS/DSP/Include/arm_math.h ****  * Otherwise the functions return
 236:Drivers/CMSIS/DSP/Include/arm_math.h ****  * <pre>
 237:Drivers/CMSIS/DSP/Include/arm_math.h ****  *     ARM_MATH_SUCCESS
 238:Drivers/CMSIS/DSP/Include/arm_math.h ****  * </pre>
 239:Drivers/CMSIS/DSP/Include/arm_math.h ****  * There is some overhead associated with this matrix size checking.
 240:Drivers/CMSIS/DSP/Include/arm_math.h ****  * The matrix size checking is enabled via the \#define
 241:Drivers/CMSIS/DSP/Include/arm_math.h ****  * <pre>
 242:Drivers/CMSIS/DSP/Include/arm_math.h ****  *     ARM_MATH_MATRIX_CHECK
 243:Drivers/CMSIS/DSP/Include/arm_math.h ****  * </pre>
 244:Drivers/CMSIS/DSP/Include/arm_math.h ****  * within the library project settings.  By default this macro is defined
 245:Drivers/CMSIS/DSP/Include/arm_math.h ****  * and size checking is enabled. By changing the project settings and
 246:Drivers/CMSIS/DSP/Include/arm_math.h ****  * undefining this macro size checking is eliminated and the functions
 247:Drivers/CMSIS/DSP/Include/arm_math.h ****  * run a bit faster. With size checking disabled the functions always
 248:Drivers/CMSIS/DSP/Include/arm_math.h ****  * return <code>ARM_MATH_SUCCESS</code>.
 249:Drivers/CMSIS/DSP/Include/arm_math.h ****  */
 250:Drivers/CMSIS/DSP/Include/arm_math.h **** 
 251:Drivers/CMSIS/DSP/Include/arm_math.h **** /**
 252:Drivers/CMSIS/DSP/Include/arm_math.h ****  * @defgroup groupTransforms Transform Functions
 253:Drivers/CMSIS/DSP/Include/arm_math.h ****  */
 254:Drivers/CMSIS/DSP/Include/arm_math.h **** 
 255:Drivers/CMSIS/DSP/Include/arm_math.h **** /**
 256:Drivers/CMSIS/DSP/Include/arm_math.h ****  * @defgroup groupController Controller Functions
 257:Drivers/CMSIS/DSP/Include/arm_math.h ****  */
 258:Drivers/CMSIS/DSP/Include/arm_math.h **** 
 259:Drivers/CMSIS/DSP/Include/arm_math.h **** /**
 260:Drivers/CMSIS/DSP/Include/arm_math.h ****  * @defgroup groupStats Statistics Functions
 261:Drivers/CMSIS/DSP/Include/arm_math.h ****  */
 262:Drivers/CMSIS/DSP/Include/arm_math.h **** 
 263:Drivers/CMSIS/DSP/Include/arm_math.h **** /**
 264:Drivers/CMSIS/DSP/Include/arm_math.h ****  * @defgroup groupSupport Support Functions
 265:Drivers/CMSIS/DSP/Include/arm_math.h ****  */
 266:Drivers/CMSIS/DSP/Include/arm_math.h **** 
 267:Drivers/CMSIS/DSP/Include/arm_math.h **** /**
 268:Drivers/CMSIS/DSP/Include/arm_math.h ****  * @defgroup groupInterpolation Interpolation Functions
 269:Drivers/CMSIS/DSP/Include/arm_math.h ****  * These functions perform 1- and 2-dimensional interpolation of data.
 270:Drivers/CMSIS/DSP/Include/arm_math.h ****  * Linear interpolation is used for 1-dimensional data and
 271:Drivers/CMSIS/DSP/Include/arm_math.h ****  * bilinear interpolation is used for 2-dimensional data.
 272:Drivers/CMSIS/DSP/Include/arm_math.h ****  */
 273:Drivers/CMSIS/DSP/Include/arm_math.h **** 
 274:Drivers/CMSIS/DSP/Include/arm_math.h **** /**
 275:Drivers/CMSIS/DSP/Include/arm_math.h ****  * @defgroup groupExamples Examples
 276:Drivers/CMSIS/DSP/Include/arm_math.h ****  */
 277:Drivers/CMSIS/DSP/Include/arm_math.h **** 
 278:Drivers/CMSIS/DSP/Include/arm_math.h **** 
 279:Drivers/CMSIS/DSP/Include/arm_math.h **** #ifndef _ARM_MATH_H
 280:Drivers/CMSIS/DSP/Include/arm_math.h **** #define _ARM_MATH_H
 281:Drivers/CMSIS/DSP/Include/arm_math.h **** 
ARM GAS  C:\Users\Joknem\AppData\Local\Temp\ccvCWXA9.s 			page 10


 282:Drivers/CMSIS/DSP/Include/arm_math.h **** /* Compiler specific diagnostic adjustment */
 283:Drivers/CMSIS/DSP/Include/arm_math.h **** #if   defined ( __CC_ARM )
 284:Drivers/CMSIS/DSP/Include/arm_math.h **** 
 285:Drivers/CMSIS/DSP/Include/arm_math.h **** #elif defined ( __ARMCC_VERSION ) && ( __ARMCC_VERSION >= 6010050 )
 286:Drivers/CMSIS/DSP/Include/arm_math.h **** 
 287:Drivers/CMSIS/DSP/Include/arm_math.h **** #elif defined ( __GNUC__ )
 288:Drivers/CMSIS/DSP/Include/arm_math.h ****   #pragma GCC diagnostic push
 289:Drivers/CMSIS/DSP/Include/arm_math.h ****   #pragma GCC diagnostic ignored "-Wsign-conversion"
 290:Drivers/CMSIS/DSP/Include/arm_math.h ****   #pragma GCC diagnostic ignored "-Wconversion"
 291:Drivers/CMSIS/DSP/Include/arm_math.h ****   #pragma GCC diagnostic ignored "-Wunused-parameter"
 292:Drivers/CMSIS/DSP/Include/arm_math.h **** 
 293:Drivers/CMSIS/DSP/Include/arm_math.h **** #elif defined ( __ICCARM__ )
 294:Drivers/CMSIS/DSP/Include/arm_math.h **** 
 295:Drivers/CMSIS/DSP/Include/arm_math.h **** #elif defined ( __TI_ARM__ )
 296:Drivers/CMSIS/DSP/Include/arm_math.h **** 
 297:Drivers/CMSIS/DSP/Include/arm_math.h **** #elif defined ( __CSMC__ )
 298:Drivers/CMSIS/DSP/Include/arm_math.h **** 
 299:Drivers/CMSIS/DSP/Include/arm_math.h **** #elif defined ( __TASKING__ )
 300:Drivers/CMSIS/DSP/Include/arm_math.h **** 
 301:Drivers/CMSIS/DSP/Include/arm_math.h **** #elif defined ( _MSC_VER )
 302:Drivers/CMSIS/DSP/Include/arm_math.h **** 
 303:Drivers/CMSIS/DSP/Include/arm_math.h **** #else
 304:Drivers/CMSIS/DSP/Include/arm_math.h ****   #error Unknown compiler
 305:Drivers/CMSIS/DSP/Include/arm_math.h **** #endif
 306:Drivers/CMSIS/DSP/Include/arm_math.h **** 
 307:Drivers/CMSIS/DSP/Include/arm_math.h **** 
 308:Drivers/CMSIS/DSP/Include/arm_math.h **** /* Included for instrinsics definitions */
 309:Drivers/CMSIS/DSP/Include/arm_math.h **** #if !defined ( _MSC_VER )
 310:Drivers/CMSIS/DSP/Include/arm_math.h **** #include "cmsis_compiler.h"
 311:Drivers/CMSIS/DSP/Include/arm_math.h **** #else
 312:Drivers/CMSIS/DSP/Include/arm_math.h **** #include <stdint.h>
 313:Drivers/CMSIS/DSP/Include/arm_math.h **** #define __STATIC_FORCEINLINE static __forceinline
 314:Drivers/CMSIS/DSP/Include/arm_math.h **** #define __ALIGNED(x) __declspec(align(x))
 315:Drivers/CMSIS/DSP/Include/arm_math.h **** #define LOW_OPTIMIZATION_ENTER
 316:Drivers/CMSIS/DSP/Include/arm_math.h **** #define LOW_OPTIMIZATION_EXIT
 317:Drivers/CMSIS/DSP/Include/arm_math.h **** #define IAR_ONLY_LOW_OPTIMIZATION_ENTER 
 318:Drivers/CMSIS/DSP/Include/arm_math.h **** #define IAR_ONLY_LOW_OPTIMIZATION_EXIT
 319:Drivers/CMSIS/DSP/Include/arm_math.h **** #endif
 320:Drivers/CMSIS/DSP/Include/arm_math.h **** 
 321:Drivers/CMSIS/DSP/Include/arm_math.h **** #include "string.h"
 322:Drivers/CMSIS/DSP/Include/arm_math.h **** #include "math.h"
 323:Drivers/CMSIS/DSP/Include/arm_math.h **** #include "float.h"
 324:Drivers/CMSIS/DSP/Include/arm_math.h **** 
 325:Drivers/CMSIS/DSP/Include/arm_math.h **** /* evaluate ARM DSP feature */
 326:Drivers/CMSIS/DSP/Include/arm_math.h **** #if (defined (__ARM_FEATURE_DSP) && (__ARM_FEATURE_DSP == 1))
 327:Drivers/CMSIS/DSP/Include/arm_math.h ****   #define ARM_MATH_DSP                   1
 328:Drivers/CMSIS/DSP/Include/arm_math.h **** #endif
 329:Drivers/CMSIS/DSP/Include/arm_math.h **** 
 330:Drivers/CMSIS/DSP/Include/arm_math.h **** #if defined(__ARM_NEON)
 331:Drivers/CMSIS/DSP/Include/arm_math.h **** #include <arm_neon.h>
 332:Drivers/CMSIS/DSP/Include/arm_math.h **** #endif
 333:Drivers/CMSIS/DSP/Include/arm_math.h **** 
 334:Drivers/CMSIS/DSP/Include/arm_math.h **** 
 335:Drivers/CMSIS/DSP/Include/arm_math.h **** #ifdef   __cplusplus
 336:Drivers/CMSIS/DSP/Include/arm_math.h **** extern "C"
 337:Drivers/CMSIS/DSP/Include/arm_math.h **** {
 338:Drivers/CMSIS/DSP/Include/arm_math.h **** #endif
ARM GAS  C:\Users\Joknem\AppData\Local\Temp\ccvCWXA9.s 			page 11


 339:Drivers/CMSIS/DSP/Include/arm_math.h **** 
 340:Drivers/CMSIS/DSP/Include/arm_math.h **** 
 341:Drivers/CMSIS/DSP/Include/arm_math.h ****   /**
 342:Drivers/CMSIS/DSP/Include/arm_math.h ****    * @brief Macros required for reciprocal calculation in Normalized LMS
 343:Drivers/CMSIS/DSP/Include/arm_math.h ****    */
 344:Drivers/CMSIS/DSP/Include/arm_math.h **** 
 345:Drivers/CMSIS/DSP/Include/arm_math.h **** #define DELTA_Q31          (0x100)
 346:Drivers/CMSIS/DSP/Include/arm_math.h **** #define DELTA_Q15          0x5
 347:Drivers/CMSIS/DSP/Include/arm_math.h **** #define INDEX_MASK         0x0000003F
 348:Drivers/CMSIS/DSP/Include/arm_math.h **** #ifndef PI
 349:Drivers/CMSIS/DSP/Include/arm_math.h ****   #define PI               3.14159265358979f
 350:Drivers/CMSIS/DSP/Include/arm_math.h **** #endif
 351:Drivers/CMSIS/DSP/Include/arm_math.h **** 
 352:Drivers/CMSIS/DSP/Include/arm_math.h ****   /**
 353:Drivers/CMSIS/DSP/Include/arm_math.h ****    * @brief Macros required for SINE and COSINE Fast math approximations
 354:Drivers/CMSIS/DSP/Include/arm_math.h ****    */
 355:Drivers/CMSIS/DSP/Include/arm_math.h **** 
 356:Drivers/CMSIS/DSP/Include/arm_math.h **** #define FAST_MATH_TABLE_SIZE  512
 357:Drivers/CMSIS/DSP/Include/arm_math.h **** #define FAST_MATH_Q31_SHIFT   (32 - 10)
 358:Drivers/CMSIS/DSP/Include/arm_math.h **** #define FAST_MATH_Q15_SHIFT   (16 - 10)
 359:Drivers/CMSIS/DSP/Include/arm_math.h **** #define CONTROLLER_Q31_SHIFT  (32 - 9)
 360:Drivers/CMSIS/DSP/Include/arm_math.h **** #define TABLE_SPACING_Q31     0x400000
 361:Drivers/CMSIS/DSP/Include/arm_math.h **** #define TABLE_SPACING_Q15     0x80
 362:Drivers/CMSIS/DSP/Include/arm_math.h **** 
 363:Drivers/CMSIS/DSP/Include/arm_math.h ****   /**
 364:Drivers/CMSIS/DSP/Include/arm_math.h ****    * @brief Macros required for SINE and COSINE Controller functions
 365:Drivers/CMSIS/DSP/Include/arm_math.h ****    */
 366:Drivers/CMSIS/DSP/Include/arm_math.h ****   /* 1.31(q31) Fixed value of 2/360 */
 367:Drivers/CMSIS/DSP/Include/arm_math.h ****   /* -1 to +1 is divided into 360 values so total spacing is (2/360) */
 368:Drivers/CMSIS/DSP/Include/arm_math.h **** #define INPUT_SPACING         0xB60B61
 369:Drivers/CMSIS/DSP/Include/arm_math.h **** 
 370:Drivers/CMSIS/DSP/Include/arm_math.h **** 
 371:Drivers/CMSIS/DSP/Include/arm_math.h ****   /**
 372:Drivers/CMSIS/DSP/Include/arm_math.h ****    * @brief Error status returned by some functions in the library.
 373:Drivers/CMSIS/DSP/Include/arm_math.h ****    */
 374:Drivers/CMSIS/DSP/Include/arm_math.h **** 
 375:Drivers/CMSIS/DSP/Include/arm_math.h ****   typedef enum
 376:Drivers/CMSIS/DSP/Include/arm_math.h ****   {
 377:Drivers/CMSIS/DSP/Include/arm_math.h ****     ARM_MATH_SUCCESS        =  0,        /**< No error */
 378:Drivers/CMSIS/DSP/Include/arm_math.h ****     ARM_MATH_ARGUMENT_ERROR = -1,        /**< One or more arguments are incorrect */
 379:Drivers/CMSIS/DSP/Include/arm_math.h ****     ARM_MATH_LENGTH_ERROR   = -2,        /**< Length of data buffer is incorrect */
 380:Drivers/CMSIS/DSP/Include/arm_math.h ****     ARM_MATH_SIZE_MISMATCH  = -3,        /**< Size of matrices is not compatible with the operation
 381:Drivers/CMSIS/DSP/Include/arm_math.h ****     ARM_MATH_NANINF         = -4,        /**< Not-a-number (NaN) or infinity is generated */
 382:Drivers/CMSIS/DSP/Include/arm_math.h ****     ARM_MATH_SINGULAR       = -5,        /**< Input matrix is singular and cannot be inverted */
 383:Drivers/CMSIS/DSP/Include/arm_math.h ****     ARM_MATH_TEST_FAILURE   = -6         /**< Test Failed */
 384:Drivers/CMSIS/DSP/Include/arm_math.h ****   } arm_status;
 385:Drivers/CMSIS/DSP/Include/arm_math.h **** 
 386:Drivers/CMSIS/DSP/Include/arm_math.h ****   /**
 387:Drivers/CMSIS/DSP/Include/arm_math.h ****    * @brief 8-bit fractional data type in 1.7 format.
 388:Drivers/CMSIS/DSP/Include/arm_math.h ****    */
 389:Drivers/CMSIS/DSP/Include/arm_math.h ****   typedef int8_t q7_t;
 390:Drivers/CMSIS/DSP/Include/arm_math.h **** 
 391:Drivers/CMSIS/DSP/Include/arm_math.h ****   /**
 392:Drivers/CMSIS/DSP/Include/arm_math.h ****    * @brief 16-bit fractional data type in 1.15 format.
 393:Drivers/CMSIS/DSP/Include/arm_math.h ****    */
 394:Drivers/CMSIS/DSP/Include/arm_math.h ****   typedef int16_t q15_t;
 395:Drivers/CMSIS/DSP/Include/arm_math.h **** 
ARM GAS  C:\Users\Joknem\AppData\Local\Temp\ccvCWXA9.s 			page 12


 396:Drivers/CMSIS/DSP/Include/arm_math.h ****   /**
 397:Drivers/CMSIS/DSP/Include/arm_math.h ****    * @brief 32-bit fractional data type in 1.31 format.
 398:Drivers/CMSIS/DSP/Include/arm_math.h ****    */
 399:Drivers/CMSIS/DSP/Include/arm_math.h ****   typedef int32_t q31_t;
 400:Drivers/CMSIS/DSP/Include/arm_math.h **** 
 401:Drivers/CMSIS/DSP/Include/arm_math.h ****   /**
 402:Drivers/CMSIS/DSP/Include/arm_math.h ****    * @brief 64-bit fractional data type in 1.63 format.
 403:Drivers/CMSIS/DSP/Include/arm_math.h ****    */
 404:Drivers/CMSIS/DSP/Include/arm_math.h ****   typedef int64_t q63_t;
 405:Drivers/CMSIS/DSP/Include/arm_math.h **** 
 406:Drivers/CMSIS/DSP/Include/arm_math.h ****   /**
 407:Drivers/CMSIS/DSP/Include/arm_math.h ****    * @brief 32-bit floating-point type definition.
 408:Drivers/CMSIS/DSP/Include/arm_math.h ****    */
 409:Drivers/CMSIS/DSP/Include/arm_math.h ****   typedef float float32_t;
 410:Drivers/CMSIS/DSP/Include/arm_math.h **** 
 411:Drivers/CMSIS/DSP/Include/arm_math.h ****   /**
 412:Drivers/CMSIS/DSP/Include/arm_math.h ****    * @brief 64-bit floating-point type definition.
 413:Drivers/CMSIS/DSP/Include/arm_math.h ****    */
 414:Drivers/CMSIS/DSP/Include/arm_math.h ****   typedef double float64_t;
 415:Drivers/CMSIS/DSP/Include/arm_math.h **** 
 416:Drivers/CMSIS/DSP/Include/arm_math.h **** 
 417:Drivers/CMSIS/DSP/Include/arm_math.h **** /**
 418:Drivers/CMSIS/DSP/Include/arm_math.h ****   @brief definition to read/write two 16 bit values.
 419:Drivers/CMSIS/DSP/Include/arm_math.h ****   @deprecated
 420:Drivers/CMSIS/DSP/Include/arm_math.h ****  */
 421:Drivers/CMSIS/DSP/Include/arm_math.h **** #if   defined ( __CC_ARM )
 422:Drivers/CMSIS/DSP/Include/arm_math.h ****   #define __SIMD32_TYPE int32_t __packed
 423:Drivers/CMSIS/DSP/Include/arm_math.h **** #elif defined ( __ARMCC_VERSION ) && ( __ARMCC_VERSION >= 6010050 )
 424:Drivers/CMSIS/DSP/Include/arm_math.h ****   #define __SIMD32_TYPE int32_t
 425:Drivers/CMSIS/DSP/Include/arm_math.h **** #elif defined ( __GNUC__ )
 426:Drivers/CMSIS/DSP/Include/arm_math.h ****   #define __SIMD32_TYPE int32_t
 427:Drivers/CMSIS/DSP/Include/arm_math.h **** #elif defined ( __ICCARM__ )
 428:Drivers/CMSIS/DSP/Include/arm_math.h ****   #define __SIMD32_TYPE int32_t __packed
 429:Drivers/CMSIS/DSP/Include/arm_math.h **** #elif defined ( __TI_ARM__ )
 430:Drivers/CMSIS/DSP/Include/arm_math.h ****   #define __SIMD32_TYPE int32_t
 431:Drivers/CMSIS/DSP/Include/arm_math.h **** #elif defined ( __CSMC__ )
 432:Drivers/CMSIS/DSP/Include/arm_math.h ****   #define __SIMD32_TYPE int32_t
 433:Drivers/CMSIS/DSP/Include/arm_math.h **** #elif defined ( __TASKING__ )
 434:Drivers/CMSIS/DSP/Include/arm_math.h ****   #define __SIMD32_TYPE __un(aligned) int32_t
 435:Drivers/CMSIS/DSP/Include/arm_math.h **** #elif defined(_MSC_VER )
 436:Drivers/CMSIS/DSP/Include/arm_math.h ****   #define __SIMD32_TYPE int32_t
 437:Drivers/CMSIS/DSP/Include/arm_math.h **** #else
 438:Drivers/CMSIS/DSP/Include/arm_math.h ****   #error Unknown compiler
 439:Drivers/CMSIS/DSP/Include/arm_math.h **** #endif
 440:Drivers/CMSIS/DSP/Include/arm_math.h **** 
 441:Drivers/CMSIS/DSP/Include/arm_math.h **** #define __SIMD32(addr)        (*(__SIMD32_TYPE **) & (addr))
 442:Drivers/CMSIS/DSP/Include/arm_math.h **** #define __SIMD32_CONST(addr)  ( (__SIMD32_TYPE * )   (addr))
 443:Drivers/CMSIS/DSP/Include/arm_math.h **** #define _SIMD32_OFFSET(addr)  (*(__SIMD32_TYPE * )   (addr))
 444:Drivers/CMSIS/DSP/Include/arm_math.h **** #define __SIMD64(addr)        (*(      int64_t **) & (addr))
 445:Drivers/CMSIS/DSP/Include/arm_math.h **** 
 446:Drivers/CMSIS/DSP/Include/arm_math.h **** /* SIMD replacement */
 447:Drivers/CMSIS/DSP/Include/arm_math.h **** 
 448:Drivers/CMSIS/DSP/Include/arm_math.h **** 
 449:Drivers/CMSIS/DSP/Include/arm_math.h **** /**
 450:Drivers/CMSIS/DSP/Include/arm_math.h ****   @brief         Read 2 Q15 from Q15 pointer.
 451:Drivers/CMSIS/DSP/Include/arm_math.h ****   @param[in]     pQ15      points to input value
 452:Drivers/CMSIS/DSP/Include/arm_math.h ****   @return        Q31 value
ARM GAS  C:\Users\Joknem\AppData\Local\Temp\ccvCWXA9.s 			page 13


 453:Drivers/CMSIS/DSP/Include/arm_math.h ****  */
 454:Drivers/CMSIS/DSP/Include/arm_math.h **** __STATIC_FORCEINLINE q31_t read_q15x2 (
 455:Drivers/CMSIS/DSP/Include/arm_math.h ****   q15_t * pQ15)
 456:Drivers/CMSIS/DSP/Include/arm_math.h **** {
 457:Drivers/CMSIS/DSP/Include/arm_math.h ****   q31_t val;
 458:Drivers/CMSIS/DSP/Include/arm_math.h **** 
 459:Drivers/CMSIS/DSP/Include/arm_math.h ****   memcpy (&val, pQ15, 4);
 460:Drivers/CMSIS/DSP/Include/arm_math.h **** 
 461:Drivers/CMSIS/DSP/Include/arm_math.h ****   return (val);
 462:Drivers/CMSIS/DSP/Include/arm_math.h **** }
 463:Drivers/CMSIS/DSP/Include/arm_math.h **** 
 464:Drivers/CMSIS/DSP/Include/arm_math.h **** /**
 465:Drivers/CMSIS/DSP/Include/arm_math.h ****   @brief         Read 2 Q15 from Q15 pointer and increment pointer afterwards.
 466:Drivers/CMSIS/DSP/Include/arm_math.h ****   @param[in]     pQ15      points to input value
 467:Drivers/CMSIS/DSP/Include/arm_math.h ****   @return        Q31 value
 468:Drivers/CMSIS/DSP/Include/arm_math.h ****  */
 469:Drivers/CMSIS/DSP/Include/arm_math.h **** __STATIC_FORCEINLINE q31_t read_q15x2_ia (
 470:Drivers/CMSIS/DSP/Include/arm_math.h ****   q15_t ** pQ15)
 471:Drivers/CMSIS/DSP/Include/arm_math.h **** {
 472:Drivers/CMSIS/DSP/Include/arm_math.h ****   q31_t val;
 473:Drivers/CMSIS/DSP/Include/arm_math.h **** 
 474:Drivers/CMSIS/DSP/Include/arm_math.h ****   memcpy (&val, *pQ15, 4);
 475:Drivers/CMSIS/DSP/Include/arm_math.h ****   *pQ15 += 2;
 476:Drivers/CMSIS/DSP/Include/arm_math.h **** 
 477:Drivers/CMSIS/DSP/Include/arm_math.h ****   return (val);
 478:Drivers/CMSIS/DSP/Include/arm_math.h **** }
 479:Drivers/CMSIS/DSP/Include/arm_math.h **** 
 480:Drivers/CMSIS/DSP/Include/arm_math.h **** /**
 481:Drivers/CMSIS/DSP/Include/arm_math.h ****   @brief         Read 2 Q15 from Q15 pointer and decrement pointer afterwards.
 482:Drivers/CMSIS/DSP/Include/arm_math.h ****   @param[in]     pQ15      points to input value
 483:Drivers/CMSIS/DSP/Include/arm_math.h ****   @return        Q31 value
 484:Drivers/CMSIS/DSP/Include/arm_math.h ****  */
 485:Drivers/CMSIS/DSP/Include/arm_math.h **** __STATIC_FORCEINLINE q31_t read_q15x2_da (
 486:Drivers/CMSIS/DSP/Include/arm_math.h ****   q15_t ** pQ15)
 487:Drivers/CMSIS/DSP/Include/arm_math.h **** {
 488:Drivers/CMSIS/DSP/Include/arm_math.h ****   q31_t val;
 489:Drivers/CMSIS/DSP/Include/arm_math.h **** 
 490:Drivers/CMSIS/DSP/Include/arm_math.h ****   memcpy (&val, *pQ15, 4);
 491:Drivers/CMSIS/DSP/Include/arm_math.h ****   *pQ15 -= 2;
 492:Drivers/CMSIS/DSP/Include/arm_math.h **** 
 493:Drivers/CMSIS/DSP/Include/arm_math.h ****   return (val);
 494:Drivers/CMSIS/DSP/Include/arm_math.h **** }
 495:Drivers/CMSIS/DSP/Include/arm_math.h **** 
 496:Drivers/CMSIS/DSP/Include/arm_math.h **** /**
 497:Drivers/CMSIS/DSP/Include/arm_math.h ****   @brief         Write 2 Q15 to Q15 pointer and increment pointer afterwards.
 498:Drivers/CMSIS/DSP/Include/arm_math.h ****   @param[in]     pQ15      points to input value
 499:Drivers/CMSIS/DSP/Include/arm_math.h ****   @param[in]     value     Q31 value
 500:Drivers/CMSIS/DSP/Include/arm_math.h ****   @return        none
 501:Drivers/CMSIS/DSP/Include/arm_math.h ****  */
 502:Drivers/CMSIS/DSP/Include/arm_math.h **** __STATIC_FORCEINLINE void write_q15x2_ia (
 503:Drivers/CMSIS/DSP/Include/arm_math.h ****   q15_t ** pQ15,
 504:Drivers/CMSIS/DSP/Include/arm_math.h ****   q31_t    value)
 505:Drivers/CMSIS/DSP/Include/arm_math.h **** {
 506:Drivers/CMSIS/DSP/Include/arm_math.h ****   q31_t val = value;
 507:Drivers/CMSIS/DSP/Include/arm_math.h **** 
 508:Drivers/CMSIS/DSP/Include/arm_math.h ****   memcpy (*pQ15, &val, 4);
 509:Drivers/CMSIS/DSP/Include/arm_math.h ****   *pQ15 += 2;
ARM GAS  C:\Users\Joknem\AppData\Local\Temp\ccvCWXA9.s 			page 14


 510:Drivers/CMSIS/DSP/Include/arm_math.h **** }
 511:Drivers/CMSIS/DSP/Include/arm_math.h **** 
 512:Drivers/CMSIS/DSP/Include/arm_math.h **** /**
 513:Drivers/CMSIS/DSP/Include/arm_math.h ****   @brief         Write 2 Q15 to Q15 pointer.
 514:Drivers/CMSIS/DSP/Include/arm_math.h ****   @param[in]     pQ15      points to input value
 515:Drivers/CMSIS/DSP/Include/arm_math.h ****   @param[in]     value     Q31 value
 516:Drivers/CMSIS/DSP/Include/arm_math.h ****   @return        none
 517:Drivers/CMSIS/DSP/Include/arm_math.h ****  */
 518:Drivers/CMSIS/DSP/Include/arm_math.h **** __STATIC_FORCEINLINE void write_q15x2 (
 519:Drivers/CMSIS/DSP/Include/arm_math.h ****   q15_t * pQ15,
 520:Drivers/CMSIS/DSP/Include/arm_math.h ****   q31_t   value)
 521:Drivers/CMSIS/DSP/Include/arm_math.h **** {
 522:Drivers/CMSIS/DSP/Include/arm_math.h ****   q31_t val = value;
 523:Drivers/CMSIS/DSP/Include/arm_math.h **** 
 524:Drivers/CMSIS/DSP/Include/arm_math.h ****   memcpy (pQ15, &val, 4);
 525:Drivers/CMSIS/DSP/Include/arm_math.h **** }
 526:Drivers/CMSIS/DSP/Include/arm_math.h **** 
 527:Drivers/CMSIS/DSP/Include/arm_math.h **** 
 528:Drivers/CMSIS/DSP/Include/arm_math.h **** /**
 529:Drivers/CMSIS/DSP/Include/arm_math.h ****   @brief         Read 4 Q7 from Q7 pointer and increment pointer afterwards.
 530:Drivers/CMSIS/DSP/Include/arm_math.h ****   @param[in]     pQ7       points to input value
 531:Drivers/CMSIS/DSP/Include/arm_math.h ****   @return        Q31 value
 532:Drivers/CMSIS/DSP/Include/arm_math.h ****  */
 533:Drivers/CMSIS/DSP/Include/arm_math.h **** __STATIC_FORCEINLINE q31_t read_q7x4_ia (
 534:Drivers/CMSIS/DSP/Include/arm_math.h ****   q7_t ** pQ7)
 535:Drivers/CMSIS/DSP/Include/arm_math.h **** {
 536:Drivers/CMSIS/DSP/Include/arm_math.h ****   q31_t val;
 537:Drivers/CMSIS/DSP/Include/arm_math.h **** 
 538:Drivers/CMSIS/DSP/Include/arm_math.h ****   memcpy (&val, *pQ7, 4);
 539:Drivers/CMSIS/DSP/Include/arm_math.h ****   *pQ7 += 4;
 540:Drivers/CMSIS/DSP/Include/arm_math.h **** 
 541:Drivers/CMSIS/DSP/Include/arm_math.h ****   return (val);
 542:Drivers/CMSIS/DSP/Include/arm_math.h **** }
 543:Drivers/CMSIS/DSP/Include/arm_math.h **** 
 544:Drivers/CMSIS/DSP/Include/arm_math.h **** /**
 545:Drivers/CMSIS/DSP/Include/arm_math.h ****   @brief         Read 4 Q7 from Q7 pointer and decrement pointer afterwards.
 546:Drivers/CMSIS/DSP/Include/arm_math.h ****   @param[in]     pQ7       points to input value
 547:Drivers/CMSIS/DSP/Include/arm_math.h ****   @return        Q31 value
 548:Drivers/CMSIS/DSP/Include/arm_math.h ****  */
 549:Drivers/CMSIS/DSP/Include/arm_math.h **** __STATIC_FORCEINLINE q31_t read_q7x4_da (
 550:Drivers/CMSIS/DSP/Include/arm_math.h ****   q7_t ** pQ7)
 551:Drivers/CMSIS/DSP/Include/arm_math.h **** {
 552:Drivers/CMSIS/DSP/Include/arm_math.h ****   q31_t val;
 553:Drivers/CMSIS/DSP/Include/arm_math.h **** 
 554:Drivers/CMSIS/DSP/Include/arm_math.h ****   memcpy (&val, *pQ7, 4);
 555:Drivers/CMSIS/DSP/Include/arm_math.h ****   *pQ7 -= 4;
 556:Drivers/CMSIS/DSP/Include/arm_math.h **** 
 557:Drivers/CMSIS/DSP/Include/arm_math.h ****   return (val);
 558:Drivers/CMSIS/DSP/Include/arm_math.h **** }
 559:Drivers/CMSIS/DSP/Include/arm_math.h **** 
 560:Drivers/CMSIS/DSP/Include/arm_math.h **** /**
 561:Drivers/CMSIS/DSP/Include/arm_math.h ****   @brief         Write 4 Q7 to Q7 pointer and increment pointer afterwards.
 562:Drivers/CMSIS/DSP/Include/arm_math.h ****   @param[in]     pQ7       points to input value
 563:Drivers/CMSIS/DSP/Include/arm_math.h ****   @param[in]     value     Q31 value
 564:Drivers/CMSIS/DSP/Include/arm_math.h ****   @return        none
 565:Drivers/CMSIS/DSP/Include/arm_math.h ****  */
 566:Drivers/CMSIS/DSP/Include/arm_math.h **** __STATIC_FORCEINLINE void write_q7x4_ia (
ARM GAS  C:\Users\Joknem\AppData\Local\Temp\ccvCWXA9.s 			page 15


 567:Drivers/CMSIS/DSP/Include/arm_math.h ****   q7_t ** pQ7,
 568:Drivers/CMSIS/DSP/Include/arm_math.h ****   q31_t   value)
 569:Drivers/CMSIS/DSP/Include/arm_math.h **** {
 570:Drivers/CMSIS/DSP/Include/arm_math.h ****   q31_t val = value;
 571:Drivers/CMSIS/DSP/Include/arm_math.h **** 
 572:Drivers/CMSIS/DSP/Include/arm_math.h ****   memcpy (*pQ7, &val, 4);
 573:Drivers/CMSIS/DSP/Include/arm_math.h ****   *pQ7 += 4;
 574:Drivers/CMSIS/DSP/Include/arm_math.h **** }
 575:Drivers/CMSIS/DSP/Include/arm_math.h **** 
 576:Drivers/CMSIS/DSP/Include/arm_math.h **** /*
 577:Drivers/CMSIS/DSP/Include/arm_math.h **** 
 578:Drivers/CMSIS/DSP/Include/arm_math.h **** Normally those kind of definitions are in a compiler file
 579:Drivers/CMSIS/DSP/Include/arm_math.h **** in Core or Core_A.
 580:Drivers/CMSIS/DSP/Include/arm_math.h **** 
 581:Drivers/CMSIS/DSP/Include/arm_math.h **** But for MSVC compiler it is a bit special. The goal is very specific
 582:Drivers/CMSIS/DSP/Include/arm_math.h **** to CMSIS-DSP and only to allow the use of this library from other
 583:Drivers/CMSIS/DSP/Include/arm_math.h **** systems like Python or Matlab.
 584:Drivers/CMSIS/DSP/Include/arm_math.h **** 
 585:Drivers/CMSIS/DSP/Include/arm_math.h **** MSVC is not going to be used to cross-compile to ARM. So, having a MSVC
 586:Drivers/CMSIS/DSP/Include/arm_math.h **** compiler file in Core or Core_A would not make sense.
 587:Drivers/CMSIS/DSP/Include/arm_math.h **** 
 588:Drivers/CMSIS/DSP/Include/arm_math.h **** */
 589:Drivers/CMSIS/DSP/Include/arm_math.h **** #if defined ( _MSC_VER )
 590:Drivers/CMSIS/DSP/Include/arm_math.h ****     __STATIC_FORCEINLINE uint8_t __CLZ(uint32_t data)
 591:Drivers/CMSIS/DSP/Include/arm_math.h ****     {
 592:Drivers/CMSIS/DSP/Include/arm_math.h ****       if (data == 0U) { return 32U; }
 593:Drivers/CMSIS/DSP/Include/arm_math.h **** 
 594:Drivers/CMSIS/DSP/Include/arm_math.h ****       uint32_t count = 0U;
 595:Drivers/CMSIS/DSP/Include/arm_math.h ****       uint32_t mask = 0x80000000U;
 596:Drivers/CMSIS/DSP/Include/arm_math.h **** 
 597:Drivers/CMSIS/DSP/Include/arm_math.h ****       while ((data & mask) == 0U)
 598:Drivers/CMSIS/DSP/Include/arm_math.h ****       {
 599:Drivers/CMSIS/DSP/Include/arm_math.h ****         count += 1U;
 600:Drivers/CMSIS/DSP/Include/arm_math.h ****         mask = mask >> 1U;
 601:Drivers/CMSIS/DSP/Include/arm_math.h ****       }
 602:Drivers/CMSIS/DSP/Include/arm_math.h ****       return count;
 603:Drivers/CMSIS/DSP/Include/arm_math.h ****     }
 604:Drivers/CMSIS/DSP/Include/arm_math.h **** 
 605:Drivers/CMSIS/DSP/Include/arm_math.h ****   __STATIC_FORCEINLINE int32_t __SSAT(int32_t val, uint32_t sat)
 606:Drivers/CMSIS/DSP/Include/arm_math.h ****   {
 607:Drivers/CMSIS/DSP/Include/arm_math.h ****     if ((sat >= 1U) && (sat <= 32U))
 608:Drivers/CMSIS/DSP/Include/arm_math.h ****     {
 609:Drivers/CMSIS/DSP/Include/arm_math.h ****       const int32_t max = (int32_t)((1U << (sat - 1U)) - 1U);
 610:Drivers/CMSIS/DSP/Include/arm_math.h ****       const int32_t min = -1 - max ;
 611:Drivers/CMSIS/DSP/Include/arm_math.h ****       if (val > max)
 612:Drivers/CMSIS/DSP/Include/arm_math.h ****       {
 613:Drivers/CMSIS/DSP/Include/arm_math.h ****         return max;
 614:Drivers/CMSIS/DSP/Include/arm_math.h ****       }
 615:Drivers/CMSIS/DSP/Include/arm_math.h ****       else if (val < min)
 616:Drivers/CMSIS/DSP/Include/arm_math.h ****       {
 617:Drivers/CMSIS/DSP/Include/arm_math.h ****         return min;
 618:Drivers/CMSIS/DSP/Include/arm_math.h ****       }
 619:Drivers/CMSIS/DSP/Include/arm_math.h ****     }
 620:Drivers/CMSIS/DSP/Include/arm_math.h ****     return val;
 621:Drivers/CMSIS/DSP/Include/arm_math.h ****   }
 622:Drivers/CMSIS/DSP/Include/arm_math.h **** 
 623:Drivers/CMSIS/DSP/Include/arm_math.h ****   __STATIC_FORCEINLINE uint32_t __USAT(int32_t val, uint32_t sat)
ARM GAS  C:\Users\Joknem\AppData\Local\Temp\ccvCWXA9.s 			page 16


 624:Drivers/CMSIS/DSP/Include/arm_math.h ****   {
 625:Drivers/CMSIS/DSP/Include/arm_math.h ****     if (sat <= 31U)
 626:Drivers/CMSIS/DSP/Include/arm_math.h ****     {
 627:Drivers/CMSIS/DSP/Include/arm_math.h ****       const uint32_t max = ((1U << sat) - 1U);
 628:Drivers/CMSIS/DSP/Include/arm_math.h ****       if (val > (int32_t)max)
 629:Drivers/CMSIS/DSP/Include/arm_math.h ****       {
 630:Drivers/CMSIS/DSP/Include/arm_math.h ****         return max;
 631:Drivers/CMSIS/DSP/Include/arm_math.h ****       }
 632:Drivers/CMSIS/DSP/Include/arm_math.h ****       else if (val < 0)
 633:Drivers/CMSIS/DSP/Include/arm_math.h ****       {
 634:Drivers/CMSIS/DSP/Include/arm_math.h ****         return 0U;
 635:Drivers/CMSIS/DSP/Include/arm_math.h ****       }
 636:Drivers/CMSIS/DSP/Include/arm_math.h ****     }
 637:Drivers/CMSIS/DSP/Include/arm_math.h ****     return (uint32_t)val;
 638:Drivers/CMSIS/DSP/Include/arm_math.h ****   }
 639:Drivers/CMSIS/DSP/Include/arm_math.h **** #endif
 640:Drivers/CMSIS/DSP/Include/arm_math.h **** 
 641:Drivers/CMSIS/DSP/Include/arm_math.h **** #ifndef ARM_MATH_DSP
 642:Drivers/CMSIS/DSP/Include/arm_math.h ****   /**
 643:Drivers/CMSIS/DSP/Include/arm_math.h ****    * @brief definition to pack two 16 bit values.
 644:Drivers/CMSIS/DSP/Include/arm_math.h ****    */
 645:Drivers/CMSIS/DSP/Include/arm_math.h ****   #define __PKHBT(ARG1, ARG2, ARG3) ( (((int32_t)(ARG1) <<    0) & (int32_t)0x0000FFFF) | \
 646:Drivers/CMSIS/DSP/Include/arm_math.h ****                                       (((int32_t)(ARG2) << ARG3) & (int32_t)0xFFFF0000)  )
 647:Drivers/CMSIS/DSP/Include/arm_math.h ****   #define __PKHTB(ARG1, ARG2, ARG3) ( (((int32_t)(ARG1) <<    0) & (int32_t)0xFFFF0000) | \
 648:Drivers/CMSIS/DSP/Include/arm_math.h ****                                       (((int32_t)(ARG2) >> ARG3) & (int32_t)0x0000FFFF)  )
 649:Drivers/CMSIS/DSP/Include/arm_math.h **** #endif
 650:Drivers/CMSIS/DSP/Include/arm_math.h **** 
 651:Drivers/CMSIS/DSP/Include/arm_math.h ****    /**
 652:Drivers/CMSIS/DSP/Include/arm_math.h ****    * @brief definition to pack four 8 bit values.
 653:Drivers/CMSIS/DSP/Include/arm_math.h ****    */
 654:Drivers/CMSIS/DSP/Include/arm_math.h **** #ifndef ARM_MATH_BIG_ENDIAN
 655:Drivers/CMSIS/DSP/Include/arm_math.h ****   #define __PACKq7(v0,v1,v2,v3) ( (((int32_t)(v0) <<  0) & (int32_t)0x000000FF) | \
 656:Drivers/CMSIS/DSP/Include/arm_math.h ****                                   (((int32_t)(v1) <<  8) & (int32_t)0x0000FF00) | \
 657:Drivers/CMSIS/DSP/Include/arm_math.h ****                                   (((int32_t)(v2) << 16) & (int32_t)0x00FF0000) | \
 658:Drivers/CMSIS/DSP/Include/arm_math.h ****                                   (((int32_t)(v3) << 24) & (int32_t)0xFF000000)  )
 659:Drivers/CMSIS/DSP/Include/arm_math.h **** #else
 660:Drivers/CMSIS/DSP/Include/arm_math.h ****   #define __PACKq7(v0,v1,v2,v3) ( (((int32_t)(v3) <<  0) & (int32_t)0x000000FF) | \
 661:Drivers/CMSIS/DSP/Include/arm_math.h ****                                   (((int32_t)(v2) <<  8) & (int32_t)0x0000FF00) | \
 662:Drivers/CMSIS/DSP/Include/arm_math.h ****                                   (((int32_t)(v1) << 16) & (int32_t)0x00FF0000) | \
 663:Drivers/CMSIS/DSP/Include/arm_math.h ****                                   (((int32_t)(v0) << 24) & (int32_t)0xFF000000)  )
 664:Drivers/CMSIS/DSP/Include/arm_math.h **** #endif
 665:Drivers/CMSIS/DSP/Include/arm_math.h **** 
 666:Drivers/CMSIS/DSP/Include/arm_math.h **** 
 667:Drivers/CMSIS/DSP/Include/arm_math.h ****   /**
 668:Drivers/CMSIS/DSP/Include/arm_math.h ****    * @brief Clips Q63 to Q31 values.
 669:Drivers/CMSIS/DSP/Include/arm_math.h ****    */
 670:Drivers/CMSIS/DSP/Include/arm_math.h ****   __STATIC_FORCEINLINE q31_t clip_q63_to_q31(
 671:Drivers/CMSIS/DSP/Include/arm_math.h ****   q63_t x)
 672:Drivers/CMSIS/DSP/Include/arm_math.h ****   {
 673:Drivers/CMSIS/DSP/Include/arm_math.h ****     return ((q31_t) (x >> 32) != ((q31_t) x >> 31)) ?
 674:Drivers/CMSIS/DSP/Include/arm_math.h ****       ((0x7FFFFFFF ^ ((q31_t) (x >> 63)))) : (q31_t) x;
 675:Drivers/CMSIS/DSP/Include/arm_math.h ****   }
 676:Drivers/CMSIS/DSP/Include/arm_math.h **** 
 677:Drivers/CMSIS/DSP/Include/arm_math.h ****   /**
 678:Drivers/CMSIS/DSP/Include/arm_math.h ****    * @brief Clips Q63 to Q15 values.
 679:Drivers/CMSIS/DSP/Include/arm_math.h ****    */
 680:Drivers/CMSIS/DSP/Include/arm_math.h ****   __STATIC_FORCEINLINE q15_t clip_q63_to_q15(
ARM GAS  C:\Users\Joknem\AppData\Local\Temp\ccvCWXA9.s 			page 17


 681:Drivers/CMSIS/DSP/Include/arm_math.h ****   q63_t x)
 682:Drivers/CMSIS/DSP/Include/arm_math.h ****   {
 683:Drivers/CMSIS/DSP/Include/arm_math.h ****     return ((q31_t) (x >> 32) != ((q31_t) x >> 31)) ?
 684:Drivers/CMSIS/DSP/Include/arm_math.h ****       ((0x7FFF ^ ((q15_t) (x >> 63)))) : (q15_t) (x >> 15);
 685:Drivers/CMSIS/DSP/Include/arm_math.h ****   }
 686:Drivers/CMSIS/DSP/Include/arm_math.h **** 
 687:Drivers/CMSIS/DSP/Include/arm_math.h ****   /**
 688:Drivers/CMSIS/DSP/Include/arm_math.h ****    * @brief Clips Q31 to Q7 values.
 689:Drivers/CMSIS/DSP/Include/arm_math.h ****    */
 690:Drivers/CMSIS/DSP/Include/arm_math.h ****   __STATIC_FORCEINLINE q7_t clip_q31_to_q7(
 691:Drivers/CMSIS/DSP/Include/arm_math.h ****   q31_t x)
 692:Drivers/CMSIS/DSP/Include/arm_math.h ****   {
 693:Drivers/CMSIS/DSP/Include/arm_math.h ****     return ((q31_t) (x >> 24) != ((q31_t) x >> 23)) ?
 694:Drivers/CMSIS/DSP/Include/arm_math.h ****       ((0x7F ^ ((q7_t) (x >> 31)))) : (q7_t) x;
 695:Drivers/CMSIS/DSP/Include/arm_math.h ****   }
 696:Drivers/CMSIS/DSP/Include/arm_math.h **** 
 697:Drivers/CMSIS/DSP/Include/arm_math.h ****   /**
 698:Drivers/CMSIS/DSP/Include/arm_math.h ****    * @brief Clips Q31 to Q15 values.
 699:Drivers/CMSIS/DSP/Include/arm_math.h ****    */
 700:Drivers/CMSIS/DSP/Include/arm_math.h ****   __STATIC_FORCEINLINE q15_t clip_q31_to_q15(
 701:Drivers/CMSIS/DSP/Include/arm_math.h ****   q31_t x)
 702:Drivers/CMSIS/DSP/Include/arm_math.h ****   {
 703:Drivers/CMSIS/DSP/Include/arm_math.h ****     return ((q31_t) (x >> 16) != ((q31_t) x >> 15)) ?
 704:Drivers/CMSIS/DSP/Include/arm_math.h ****       ((0x7FFF ^ ((q15_t) (x >> 31)))) : (q15_t) x;
 705:Drivers/CMSIS/DSP/Include/arm_math.h ****   }
 706:Drivers/CMSIS/DSP/Include/arm_math.h **** 
 707:Drivers/CMSIS/DSP/Include/arm_math.h ****   /**
 708:Drivers/CMSIS/DSP/Include/arm_math.h ****    * @brief Multiplies 32 X 64 and returns 32 bit result in 2.30 format.
 709:Drivers/CMSIS/DSP/Include/arm_math.h ****    */
 710:Drivers/CMSIS/DSP/Include/arm_math.h ****   __STATIC_FORCEINLINE q63_t mult32x64(
 711:Drivers/CMSIS/DSP/Include/arm_math.h ****   q63_t x,
 712:Drivers/CMSIS/DSP/Include/arm_math.h ****   q31_t y)
 713:Drivers/CMSIS/DSP/Include/arm_math.h ****   {
 714:Drivers/CMSIS/DSP/Include/arm_math.h ****     return ((((q63_t) (x & 0x00000000FFFFFFFF) * y) >> 32) +
 715:Drivers/CMSIS/DSP/Include/arm_math.h ****             (((q63_t) (x >> 32)                * y)      )  );
 716:Drivers/CMSIS/DSP/Include/arm_math.h ****   }
 717:Drivers/CMSIS/DSP/Include/arm_math.h **** 
 718:Drivers/CMSIS/DSP/Include/arm_math.h ****   /**
 719:Drivers/CMSIS/DSP/Include/arm_math.h ****    * @brief Function to Calculates 1/in (reciprocal) value of Q31 Data type.
 720:Drivers/CMSIS/DSP/Include/arm_math.h ****    */
 721:Drivers/CMSIS/DSP/Include/arm_math.h ****   __STATIC_FORCEINLINE uint32_t arm_recip_q31(
 722:Drivers/CMSIS/DSP/Include/arm_math.h ****         q31_t in,
 723:Drivers/CMSIS/DSP/Include/arm_math.h ****         q31_t * dst,
 724:Drivers/CMSIS/DSP/Include/arm_math.h ****   const q31_t * pRecipTable)
 725:Drivers/CMSIS/DSP/Include/arm_math.h ****   {
 726:Drivers/CMSIS/DSP/Include/arm_math.h ****     q31_t out;
 727:Drivers/CMSIS/DSP/Include/arm_math.h ****     uint32_t tempVal;
 728:Drivers/CMSIS/DSP/Include/arm_math.h ****     uint32_t index, i;
 729:Drivers/CMSIS/DSP/Include/arm_math.h ****     uint32_t signBits;
 730:Drivers/CMSIS/DSP/Include/arm_math.h **** 
 731:Drivers/CMSIS/DSP/Include/arm_math.h ****     if (in > 0)
 732:Drivers/CMSIS/DSP/Include/arm_math.h ****     {
 733:Drivers/CMSIS/DSP/Include/arm_math.h ****       signBits = ((uint32_t) (__CLZ( in) - 1));
 734:Drivers/CMSIS/DSP/Include/arm_math.h ****     }
 735:Drivers/CMSIS/DSP/Include/arm_math.h ****     else
 736:Drivers/CMSIS/DSP/Include/arm_math.h ****     {
 737:Drivers/CMSIS/DSP/Include/arm_math.h ****       signBits = ((uint32_t) (__CLZ(-in) - 1));
ARM GAS  C:\Users\Joknem\AppData\Local\Temp\ccvCWXA9.s 			page 18


 738:Drivers/CMSIS/DSP/Include/arm_math.h ****     }
 739:Drivers/CMSIS/DSP/Include/arm_math.h **** 
 740:Drivers/CMSIS/DSP/Include/arm_math.h ****     /* Convert input sample to 1.31 format */
 741:Drivers/CMSIS/DSP/Include/arm_math.h ****     in = (in << signBits);
 742:Drivers/CMSIS/DSP/Include/arm_math.h **** 
 743:Drivers/CMSIS/DSP/Include/arm_math.h ****     /* calculation of index for initial approximated Val */
 744:Drivers/CMSIS/DSP/Include/arm_math.h ****     index = (uint32_t)(in >> 24);
 745:Drivers/CMSIS/DSP/Include/arm_math.h ****     index = (index & INDEX_MASK);
 746:Drivers/CMSIS/DSP/Include/arm_math.h **** 
 747:Drivers/CMSIS/DSP/Include/arm_math.h ****     /* 1.31 with exp 1 */
 748:Drivers/CMSIS/DSP/Include/arm_math.h ****     out = pRecipTable[index];
 749:Drivers/CMSIS/DSP/Include/arm_math.h **** 
 750:Drivers/CMSIS/DSP/Include/arm_math.h ****     /* calculation of reciprocal value */
 751:Drivers/CMSIS/DSP/Include/arm_math.h ****     /* running approximation for two iterations */
 752:Drivers/CMSIS/DSP/Include/arm_math.h ****     for (i = 0U; i < 2U; i++)
 753:Drivers/CMSIS/DSP/Include/arm_math.h ****     {
 754:Drivers/CMSIS/DSP/Include/arm_math.h ****       tempVal = (uint32_t) (((q63_t) in * out) >> 31);
 755:Drivers/CMSIS/DSP/Include/arm_math.h ****       tempVal = 0x7FFFFFFFu - tempVal;
 756:Drivers/CMSIS/DSP/Include/arm_math.h ****       /*      1.31 with exp 1 */
 757:Drivers/CMSIS/DSP/Include/arm_math.h ****       /* out = (q31_t) (((q63_t) out * tempVal) >> 30); */
 758:Drivers/CMSIS/DSP/Include/arm_math.h ****       out = clip_q63_to_q31(((q63_t) out * tempVal) >> 30);
 759:Drivers/CMSIS/DSP/Include/arm_math.h ****     }
 760:Drivers/CMSIS/DSP/Include/arm_math.h **** 
 761:Drivers/CMSIS/DSP/Include/arm_math.h ****     /* write output */
 762:Drivers/CMSIS/DSP/Include/arm_math.h ****     *dst = out;
 763:Drivers/CMSIS/DSP/Include/arm_math.h **** 
 764:Drivers/CMSIS/DSP/Include/arm_math.h ****     /* return num of signbits of out = 1/in value */
 765:Drivers/CMSIS/DSP/Include/arm_math.h ****     return (signBits + 1U);
 766:Drivers/CMSIS/DSP/Include/arm_math.h ****   }
 767:Drivers/CMSIS/DSP/Include/arm_math.h **** 
 768:Drivers/CMSIS/DSP/Include/arm_math.h **** 
 769:Drivers/CMSIS/DSP/Include/arm_math.h ****   /**
 770:Drivers/CMSIS/DSP/Include/arm_math.h ****    * @brief Function to Calculates 1/in (reciprocal) value of Q15 Data type.
 771:Drivers/CMSIS/DSP/Include/arm_math.h ****    */
 772:Drivers/CMSIS/DSP/Include/arm_math.h ****   __STATIC_FORCEINLINE uint32_t arm_recip_q15(
 773:Drivers/CMSIS/DSP/Include/arm_math.h ****         q15_t in,
 774:Drivers/CMSIS/DSP/Include/arm_math.h ****         q15_t * dst,
 775:Drivers/CMSIS/DSP/Include/arm_math.h ****   const q15_t * pRecipTable)
 776:Drivers/CMSIS/DSP/Include/arm_math.h ****   {
 777:Drivers/CMSIS/DSP/Include/arm_math.h ****     q15_t out = 0;
 778:Drivers/CMSIS/DSP/Include/arm_math.h ****     uint32_t tempVal = 0;
 779:Drivers/CMSIS/DSP/Include/arm_math.h ****     uint32_t index = 0, i = 0;
 780:Drivers/CMSIS/DSP/Include/arm_math.h ****     uint32_t signBits = 0;
 781:Drivers/CMSIS/DSP/Include/arm_math.h **** 
 782:Drivers/CMSIS/DSP/Include/arm_math.h ****     if (in > 0)
 783:Drivers/CMSIS/DSP/Include/arm_math.h ****     {
 784:Drivers/CMSIS/DSP/Include/arm_math.h ****       signBits = ((uint32_t)(__CLZ( in) - 17));
 785:Drivers/CMSIS/DSP/Include/arm_math.h ****     }
 786:Drivers/CMSIS/DSP/Include/arm_math.h ****     else
 787:Drivers/CMSIS/DSP/Include/arm_math.h ****     {
 788:Drivers/CMSIS/DSP/Include/arm_math.h ****       signBits = ((uint32_t)(__CLZ(-in) - 17));
 789:Drivers/CMSIS/DSP/Include/arm_math.h ****     }
 790:Drivers/CMSIS/DSP/Include/arm_math.h **** 
 791:Drivers/CMSIS/DSP/Include/arm_math.h ****     /* Convert input sample to 1.15 format */
 792:Drivers/CMSIS/DSP/Include/arm_math.h ****     in = (in << signBits);
 793:Drivers/CMSIS/DSP/Include/arm_math.h **** 
 794:Drivers/CMSIS/DSP/Include/arm_math.h ****     /* calculation of index for initial approximated Val */
ARM GAS  C:\Users\Joknem\AppData\Local\Temp\ccvCWXA9.s 			page 19


 795:Drivers/CMSIS/DSP/Include/arm_math.h ****     index = (uint32_t)(in >>  8);
 796:Drivers/CMSIS/DSP/Include/arm_math.h ****     index = (index & INDEX_MASK);
 797:Drivers/CMSIS/DSP/Include/arm_math.h **** 
 798:Drivers/CMSIS/DSP/Include/arm_math.h ****     /*      1.15 with exp 1  */
 799:Drivers/CMSIS/DSP/Include/arm_math.h ****     out = pRecipTable[index];
 800:Drivers/CMSIS/DSP/Include/arm_math.h **** 
 801:Drivers/CMSIS/DSP/Include/arm_math.h ****     /* calculation of reciprocal value */
 802:Drivers/CMSIS/DSP/Include/arm_math.h ****     /* running approximation for two iterations */
 803:Drivers/CMSIS/DSP/Include/arm_math.h ****     for (i = 0U; i < 2U; i++)
 804:Drivers/CMSIS/DSP/Include/arm_math.h ****     {
 805:Drivers/CMSIS/DSP/Include/arm_math.h ****       tempVal = (uint32_t) (((q31_t) in * out) >> 15);
 806:Drivers/CMSIS/DSP/Include/arm_math.h ****       tempVal = 0x7FFFu - tempVal;
 807:Drivers/CMSIS/DSP/Include/arm_math.h ****       /*      1.15 with exp 1 */
 808:Drivers/CMSIS/DSP/Include/arm_math.h ****       out = (q15_t) (((q31_t) out * tempVal) >> 14);
 809:Drivers/CMSIS/DSP/Include/arm_math.h ****       /* out = clip_q31_to_q15(((q31_t) out * tempVal) >> 14); */
 810:Drivers/CMSIS/DSP/Include/arm_math.h ****     }
 811:Drivers/CMSIS/DSP/Include/arm_math.h **** 
 812:Drivers/CMSIS/DSP/Include/arm_math.h ****     /* write output */
 813:Drivers/CMSIS/DSP/Include/arm_math.h ****     *dst = out;
 814:Drivers/CMSIS/DSP/Include/arm_math.h **** 
 815:Drivers/CMSIS/DSP/Include/arm_math.h ****     /* return num of signbits of out = 1/in value */
 816:Drivers/CMSIS/DSP/Include/arm_math.h ****     return (signBits + 1);
 817:Drivers/CMSIS/DSP/Include/arm_math.h ****   }
 818:Drivers/CMSIS/DSP/Include/arm_math.h **** 
 819:Drivers/CMSIS/DSP/Include/arm_math.h **** #if defined(ARM_MATH_NEON)
 820:Drivers/CMSIS/DSP/Include/arm_math.h **** 
 821:Drivers/CMSIS/DSP/Include/arm_math.h **** static inline float32x4_t __arm_vec_sqrt_f32_neon(float32x4_t  x)
 822:Drivers/CMSIS/DSP/Include/arm_math.h **** {
 823:Drivers/CMSIS/DSP/Include/arm_math.h ****     float32x4_t x1 = vmaxq_f32(x, vdupq_n_f32(FLT_MIN));
 824:Drivers/CMSIS/DSP/Include/arm_math.h ****     float32x4_t e = vrsqrteq_f32(x1);
 825:Drivers/CMSIS/DSP/Include/arm_math.h ****     e = vmulq_f32(vrsqrtsq_f32(vmulq_f32(x1, e), e), e);
 826:Drivers/CMSIS/DSP/Include/arm_math.h ****     e = vmulq_f32(vrsqrtsq_f32(vmulq_f32(x1, e), e), e);
 827:Drivers/CMSIS/DSP/Include/arm_math.h ****     return vmulq_f32(x, e);
 828:Drivers/CMSIS/DSP/Include/arm_math.h **** }
 829:Drivers/CMSIS/DSP/Include/arm_math.h **** 
 830:Drivers/CMSIS/DSP/Include/arm_math.h **** static inline int16x8_t __arm_vec_sqrt_q15_neon(int16x8_t vec)
 831:Drivers/CMSIS/DSP/Include/arm_math.h **** {
 832:Drivers/CMSIS/DSP/Include/arm_math.h ****     float32x4_t tempF;
 833:Drivers/CMSIS/DSP/Include/arm_math.h ****     int32x4_t tempHI,tempLO;
 834:Drivers/CMSIS/DSP/Include/arm_math.h **** 
 835:Drivers/CMSIS/DSP/Include/arm_math.h ****     tempLO = vmovl_s16(vget_low_s16(vec));
 836:Drivers/CMSIS/DSP/Include/arm_math.h ****     tempF = vcvtq_n_f32_s32(tempLO,15);
 837:Drivers/CMSIS/DSP/Include/arm_math.h ****     tempF = __arm_vec_sqrt_f32_neon(tempF);
 838:Drivers/CMSIS/DSP/Include/arm_math.h ****     tempLO = vcvtq_n_s32_f32(tempF,15);
 839:Drivers/CMSIS/DSP/Include/arm_math.h **** 
 840:Drivers/CMSIS/DSP/Include/arm_math.h ****     tempHI = vmovl_s16(vget_high_s16(vec));
 841:Drivers/CMSIS/DSP/Include/arm_math.h ****     tempF = vcvtq_n_f32_s32(tempHI,15);
 842:Drivers/CMSIS/DSP/Include/arm_math.h ****     tempF = __arm_vec_sqrt_f32_neon(tempF);
 843:Drivers/CMSIS/DSP/Include/arm_math.h ****     tempHI = vcvtq_n_s32_f32(tempF,15);
 844:Drivers/CMSIS/DSP/Include/arm_math.h **** 
 845:Drivers/CMSIS/DSP/Include/arm_math.h ****     return(vcombine_s16(vqmovn_s32(tempLO),vqmovn_s32(tempHI)));
 846:Drivers/CMSIS/DSP/Include/arm_math.h **** }
 847:Drivers/CMSIS/DSP/Include/arm_math.h **** 
 848:Drivers/CMSIS/DSP/Include/arm_math.h **** static inline int32x4_t __arm_vec_sqrt_q31_neon(int32x4_t vec)
 849:Drivers/CMSIS/DSP/Include/arm_math.h **** {
 850:Drivers/CMSIS/DSP/Include/arm_math.h ****   float32x4_t temp;
 851:Drivers/CMSIS/DSP/Include/arm_math.h **** 
ARM GAS  C:\Users\Joknem\AppData\Local\Temp\ccvCWXA9.s 			page 20


 852:Drivers/CMSIS/DSP/Include/arm_math.h ****   temp = vcvtq_n_f32_s32(vec,31);
 853:Drivers/CMSIS/DSP/Include/arm_math.h ****   temp = __arm_vec_sqrt_f32_neon(temp);
 854:Drivers/CMSIS/DSP/Include/arm_math.h ****   return(vcvtq_n_s32_f32(temp,31));
 855:Drivers/CMSIS/DSP/Include/arm_math.h **** }
 856:Drivers/CMSIS/DSP/Include/arm_math.h **** 
 857:Drivers/CMSIS/DSP/Include/arm_math.h **** #endif
 858:Drivers/CMSIS/DSP/Include/arm_math.h **** 
 859:Drivers/CMSIS/DSP/Include/arm_math.h **** /*
 860:Drivers/CMSIS/DSP/Include/arm_math.h ****  * @brief C custom defined intrinsic functions
 861:Drivers/CMSIS/DSP/Include/arm_math.h ****  */
 862:Drivers/CMSIS/DSP/Include/arm_math.h **** #if !defined (ARM_MATH_DSP)
 863:Drivers/CMSIS/DSP/Include/arm_math.h **** 
 864:Drivers/CMSIS/DSP/Include/arm_math.h ****   /*
 865:Drivers/CMSIS/DSP/Include/arm_math.h ****    * @brief C custom defined QADD8
 866:Drivers/CMSIS/DSP/Include/arm_math.h ****    */
 867:Drivers/CMSIS/DSP/Include/arm_math.h ****   __STATIC_FORCEINLINE uint32_t __QADD8(
 868:Drivers/CMSIS/DSP/Include/arm_math.h ****   uint32_t x,
 869:Drivers/CMSIS/DSP/Include/arm_math.h ****   uint32_t y)
 870:Drivers/CMSIS/DSP/Include/arm_math.h ****   {
 871:Drivers/CMSIS/DSP/Include/arm_math.h ****     q31_t r, s, t, u;
 872:Drivers/CMSIS/DSP/Include/arm_math.h **** 
 873:Drivers/CMSIS/DSP/Include/arm_math.h ****     r = __SSAT(((((q31_t)x << 24) >> 24) + (((q31_t)y << 24) >> 24)), 8) & (int32_t)0x000000FF;
 874:Drivers/CMSIS/DSP/Include/arm_math.h ****     s = __SSAT(((((q31_t)x << 16) >> 24) + (((q31_t)y << 16) >> 24)), 8) & (int32_t)0x000000FF;
 875:Drivers/CMSIS/DSP/Include/arm_math.h ****     t = __SSAT(((((q31_t)x <<  8) >> 24) + (((q31_t)y <<  8) >> 24)), 8) & (int32_t)0x000000FF;
 876:Drivers/CMSIS/DSP/Include/arm_math.h ****     u = __SSAT(((((q31_t)x      ) >> 24) + (((q31_t)y      ) >> 24)), 8) & (int32_t)0x000000FF;
 877:Drivers/CMSIS/DSP/Include/arm_math.h **** 
 878:Drivers/CMSIS/DSP/Include/arm_math.h ****     return ((uint32_t)((u << 24) | (t << 16) | (s <<  8) | (r      )));
 879:Drivers/CMSIS/DSP/Include/arm_math.h ****   }
 880:Drivers/CMSIS/DSP/Include/arm_math.h **** 
 881:Drivers/CMSIS/DSP/Include/arm_math.h **** 
 882:Drivers/CMSIS/DSP/Include/arm_math.h ****   /*
 883:Drivers/CMSIS/DSP/Include/arm_math.h ****    * @brief C custom defined QSUB8
 884:Drivers/CMSIS/DSP/Include/arm_math.h ****    */
 885:Drivers/CMSIS/DSP/Include/arm_math.h ****   __STATIC_FORCEINLINE uint32_t __QSUB8(
 886:Drivers/CMSIS/DSP/Include/arm_math.h ****   uint32_t x,
 887:Drivers/CMSIS/DSP/Include/arm_math.h ****   uint32_t y)
 888:Drivers/CMSIS/DSP/Include/arm_math.h ****   {
 889:Drivers/CMSIS/DSP/Include/arm_math.h ****     q31_t r, s, t, u;
 890:Drivers/CMSIS/DSP/Include/arm_math.h **** 
 891:Drivers/CMSIS/DSP/Include/arm_math.h ****     r = __SSAT(((((q31_t)x << 24) >> 24) - (((q31_t)y << 24) >> 24)), 8) & (int32_t)0x000000FF;
 892:Drivers/CMSIS/DSP/Include/arm_math.h ****     s = __SSAT(((((q31_t)x << 16) >> 24) - (((q31_t)y << 16) >> 24)), 8) & (int32_t)0x000000FF;
 893:Drivers/CMSIS/DSP/Include/arm_math.h ****     t = __SSAT(((((q31_t)x <<  8) >> 24) - (((q31_t)y <<  8) >> 24)), 8) & (int32_t)0x000000FF;
 894:Drivers/CMSIS/DSP/Include/arm_math.h ****     u = __SSAT(((((q31_t)x      ) >> 24) - (((q31_t)y      ) >> 24)), 8) & (int32_t)0x000000FF;
 895:Drivers/CMSIS/DSP/Include/arm_math.h **** 
 896:Drivers/CMSIS/DSP/Include/arm_math.h ****     return ((uint32_t)((u << 24) | (t << 16) | (s <<  8) | (r      )));
 897:Drivers/CMSIS/DSP/Include/arm_math.h ****   }
 898:Drivers/CMSIS/DSP/Include/arm_math.h **** 
 899:Drivers/CMSIS/DSP/Include/arm_math.h **** 
 900:Drivers/CMSIS/DSP/Include/arm_math.h ****   /*
 901:Drivers/CMSIS/DSP/Include/arm_math.h ****    * @brief C custom defined QADD16
 902:Drivers/CMSIS/DSP/Include/arm_math.h ****    */
 903:Drivers/CMSIS/DSP/Include/arm_math.h ****   __STATIC_FORCEINLINE uint32_t __QADD16(
 904:Drivers/CMSIS/DSP/Include/arm_math.h ****   uint32_t x,
 905:Drivers/CMSIS/DSP/Include/arm_math.h ****   uint32_t y)
 906:Drivers/CMSIS/DSP/Include/arm_math.h ****   {
 907:Drivers/CMSIS/DSP/Include/arm_math.h **** /*  q31_t r,     s;  without initialisation 'arm_offset_q15 test' fails  but 'intrinsic' tests pass
 908:Drivers/CMSIS/DSP/Include/arm_math.h ****     q31_t r = 0, s = 0;
ARM GAS  C:\Users\Joknem\AppData\Local\Temp\ccvCWXA9.s 			page 21


 909:Drivers/CMSIS/DSP/Include/arm_math.h **** 
 910:Drivers/CMSIS/DSP/Include/arm_math.h ****     r = __SSAT(((((q31_t)x << 16) >> 16) + (((q31_t)y << 16) >> 16)), 16) & (int32_t)0x0000FFFF;
 911:Drivers/CMSIS/DSP/Include/arm_math.h ****     s = __SSAT(((((q31_t)x      ) >> 16) + (((q31_t)y      ) >> 16)), 16) & (int32_t)0x0000FFFF;
 912:Drivers/CMSIS/DSP/Include/arm_math.h **** 
 913:Drivers/CMSIS/DSP/Include/arm_math.h ****     return ((uint32_t)((s << 16) | (r      )));
 914:Drivers/CMSIS/DSP/Include/arm_math.h ****   }
 915:Drivers/CMSIS/DSP/Include/arm_math.h **** 
 916:Drivers/CMSIS/DSP/Include/arm_math.h **** 
 917:Drivers/CMSIS/DSP/Include/arm_math.h ****   /*
 918:Drivers/CMSIS/DSP/Include/arm_math.h ****    * @brief C custom defined SHADD16
 919:Drivers/CMSIS/DSP/Include/arm_math.h ****    */
 920:Drivers/CMSIS/DSP/Include/arm_math.h ****   __STATIC_FORCEINLINE uint32_t __SHADD16(
 921:Drivers/CMSIS/DSP/Include/arm_math.h ****   uint32_t x,
 922:Drivers/CMSIS/DSP/Include/arm_math.h ****   uint32_t y)
 923:Drivers/CMSIS/DSP/Include/arm_math.h ****   {
 924:Drivers/CMSIS/DSP/Include/arm_math.h ****     q31_t r, s;
 925:Drivers/CMSIS/DSP/Include/arm_math.h **** 
 926:Drivers/CMSIS/DSP/Include/arm_math.h ****     r = (((((q31_t)x << 16) >> 16) + (((q31_t)y << 16) >> 16)) >> 1) & (int32_t)0x0000FFFF;
 927:Drivers/CMSIS/DSP/Include/arm_math.h ****     s = (((((q31_t)x      ) >> 16) + (((q31_t)y      ) >> 16)) >> 1) & (int32_t)0x0000FFFF;
 928:Drivers/CMSIS/DSP/Include/arm_math.h **** 
 929:Drivers/CMSIS/DSP/Include/arm_math.h ****     return ((uint32_t)((s << 16) | (r      )));
 930:Drivers/CMSIS/DSP/Include/arm_math.h ****   }
 931:Drivers/CMSIS/DSP/Include/arm_math.h **** 
 932:Drivers/CMSIS/DSP/Include/arm_math.h **** 
 933:Drivers/CMSIS/DSP/Include/arm_math.h ****   /*
 934:Drivers/CMSIS/DSP/Include/arm_math.h ****    * @brief C custom defined QSUB16
 935:Drivers/CMSIS/DSP/Include/arm_math.h ****    */
 936:Drivers/CMSIS/DSP/Include/arm_math.h ****   __STATIC_FORCEINLINE uint32_t __QSUB16(
 937:Drivers/CMSIS/DSP/Include/arm_math.h ****   uint32_t x,
 938:Drivers/CMSIS/DSP/Include/arm_math.h ****   uint32_t y)
 939:Drivers/CMSIS/DSP/Include/arm_math.h ****   {
 940:Drivers/CMSIS/DSP/Include/arm_math.h ****     q31_t r, s;
 941:Drivers/CMSIS/DSP/Include/arm_math.h **** 
 942:Drivers/CMSIS/DSP/Include/arm_math.h ****     r = __SSAT(((((q31_t)x << 16) >> 16) - (((q31_t)y << 16) >> 16)), 16) & (int32_t)0x0000FFFF;
 943:Drivers/CMSIS/DSP/Include/arm_math.h ****     s = __SSAT(((((q31_t)x      ) >> 16) - (((q31_t)y      ) >> 16)), 16) & (int32_t)0x0000FFFF;
 944:Drivers/CMSIS/DSP/Include/arm_math.h **** 
 945:Drivers/CMSIS/DSP/Include/arm_math.h ****     return ((uint32_t)((s << 16) | (r      )));
 946:Drivers/CMSIS/DSP/Include/arm_math.h ****   }
 947:Drivers/CMSIS/DSP/Include/arm_math.h **** 
 948:Drivers/CMSIS/DSP/Include/arm_math.h **** 
 949:Drivers/CMSIS/DSP/Include/arm_math.h ****   /*
 950:Drivers/CMSIS/DSP/Include/arm_math.h ****    * @brief C custom defined SHSUB16
 951:Drivers/CMSIS/DSP/Include/arm_math.h ****    */
 952:Drivers/CMSIS/DSP/Include/arm_math.h ****   __STATIC_FORCEINLINE uint32_t __SHSUB16(
 953:Drivers/CMSIS/DSP/Include/arm_math.h ****   uint32_t x,
 954:Drivers/CMSIS/DSP/Include/arm_math.h ****   uint32_t y)
 955:Drivers/CMSIS/DSP/Include/arm_math.h ****   {
 956:Drivers/CMSIS/DSP/Include/arm_math.h ****     q31_t r, s;
 957:Drivers/CMSIS/DSP/Include/arm_math.h **** 
 958:Drivers/CMSIS/DSP/Include/arm_math.h ****     r = (((((q31_t)x << 16) >> 16) - (((q31_t)y << 16) >> 16)) >> 1) & (int32_t)0x0000FFFF;
 959:Drivers/CMSIS/DSP/Include/arm_math.h ****     s = (((((q31_t)x      ) >> 16) - (((q31_t)y      ) >> 16)) >> 1) & (int32_t)0x0000FFFF;
 960:Drivers/CMSIS/DSP/Include/arm_math.h **** 
 961:Drivers/CMSIS/DSP/Include/arm_math.h ****     return ((uint32_t)((s << 16) | (r      )));
 962:Drivers/CMSIS/DSP/Include/arm_math.h ****   }
 963:Drivers/CMSIS/DSP/Include/arm_math.h **** 
 964:Drivers/CMSIS/DSP/Include/arm_math.h **** 
 965:Drivers/CMSIS/DSP/Include/arm_math.h ****   /*
ARM GAS  C:\Users\Joknem\AppData\Local\Temp\ccvCWXA9.s 			page 22


 966:Drivers/CMSIS/DSP/Include/arm_math.h ****    * @brief C custom defined QASX
 967:Drivers/CMSIS/DSP/Include/arm_math.h ****    */
 968:Drivers/CMSIS/DSP/Include/arm_math.h ****   __STATIC_FORCEINLINE uint32_t __QASX(
 969:Drivers/CMSIS/DSP/Include/arm_math.h ****   uint32_t x,
 970:Drivers/CMSIS/DSP/Include/arm_math.h ****   uint32_t y)
 971:Drivers/CMSIS/DSP/Include/arm_math.h ****   {
 972:Drivers/CMSIS/DSP/Include/arm_math.h ****     q31_t r, s;
 973:Drivers/CMSIS/DSP/Include/arm_math.h **** 
 974:Drivers/CMSIS/DSP/Include/arm_math.h ****     r = __SSAT(((((q31_t)x << 16) >> 16) - (((q31_t)y      ) >> 16)), 16) & (int32_t)0x0000FFFF;
 975:Drivers/CMSIS/DSP/Include/arm_math.h ****     s = __SSAT(((((q31_t)x      ) >> 16) + (((q31_t)y << 16) >> 16)), 16) & (int32_t)0x0000FFFF;
 976:Drivers/CMSIS/DSP/Include/arm_math.h **** 
 977:Drivers/CMSIS/DSP/Include/arm_math.h ****     return ((uint32_t)((s << 16) | (r      )));
 978:Drivers/CMSIS/DSP/Include/arm_math.h ****   }
 979:Drivers/CMSIS/DSP/Include/arm_math.h **** 
 980:Drivers/CMSIS/DSP/Include/arm_math.h **** 
 981:Drivers/CMSIS/DSP/Include/arm_math.h ****   /*
 982:Drivers/CMSIS/DSP/Include/arm_math.h ****    * @brief C custom defined SHASX
 983:Drivers/CMSIS/DSP/Include/arm_math.h ****    */
 984:Drivers/CMSIS/DSP/Include/arm_math.h ****   __STATIC_FORCEINLINE uint32_t __SHASX(
 985:Drivers/CMSIS/DSP/Include/arm_math.h ****   uint32_t x,
 986:Drivers/CMSIS/DSP/Include/arm_math.h ****   uint32_t y)
 987:Drivers/CMSIS/DSP/Include/arm_math.h ****   {
 988:Drivers/CMSIS/DSP/Include/arm_math.h ****     q31_t r, s;
 989:Drivers/CMSIS/DSP/Include/arm_math.h **** 
 990:Drivers/CMSIS/DSP/Include/arm_math.h ****     r = (((((q31_t)x << 16) >> 16) - (((q31_t)y      ) >> 16)) >> 1) & (int32_t)0x0000FFFF;
 991:Drivers/CMSIS/DSP/Include/arm_math.h ****     s = (((((q31_t)x      ) >> 16) + (((q31_t)y << 16) >> 16)) >> 1) & (int32_t)0x0000FFFF;
 992:Drivers/CMSIS/DSP/Include/arm_math.h **** 
 993:Drivers/CMSIS/DSP/Include/arm_math.h ****     return ((uint32_t)((s << 16) | (r      )));
 994:Drivers/CMSIS/DSP/Include/arm_math.h ****   }
 995:Drivers/CMSIS/DSP/Include/arm_math.h **** 
 996:Drivers/CMSIS/DSP/Include/arm_math.h **** 
 997:Drivers/CMSIS/DSP/Include/arm_math.h ****   /*
 998:Drivers/CMSIS/DSP/Include/arm_math.h ****    * @brief C custom defined QSAX
 999:Drivers/CMSIS/DSP/Include/arm_math.h ****    */
1000:Drivers/CMSIS/DSP/Include/arm_math.h ****   __STATIC_FORCEINLINE uint32_t __QSAX(
1001:Drivers/CMSIS/DSP/Include/arm_math.h ****   uint32_t x,
1002:Drivers/CMSIS/DSP/Include/arm_math.h ****   uint32_t y)
1003:Drivers/CMSIS/DSP/Include/arm_math.h ****   {
1004:Drivers/CMSIS/DSP/Include/arm_math.h ****     q31_t r, s;
1005:Drivers/CMSIS/DSP/Include/arm_math.h **** 
1006:Drivers/CMSIS/DSP/Include/arm_math.h ****     r = __SSAT(((((q31_t)x << 16) >> 16) + (((q31_t)y      ) >> 16)), 16) & (int32_t)0x0000FFFF;
1007:Drivers/CMSIS/DSP/Include/arm_math.h ****     s = __SSAT(((((q31_t)x      ) >> 16) - (((q31_t)y << 16) >> 16)), 16) & (int32_t)0x0000FFFF;
1008:Drivers/CMSIS/DSP/Include/arm_math.h **** 
1009:Drivers/CMSIS/DSP/Include/arm_math.h ****     return ((uint32_t)((s << 16) | (r      )));
1010:Drivers/CMSIS/DSP/Include/arm_math.h ****   }
1011:Drivers/CMSIS/DSP/Include/arm_math.h **** 
1012:Drivers/CMSIS/DSP/Include/arm_math.h **** 
1013:Drivers/CMSIS/DSP/Include/arm_math.h ****   /*
1014:Drivers/CMSIS/DSP/Include/arm_math.h ****    * @brief C custom defined SHSAX
1015:Drivers/CMSIS/DSP/Include/arm_math.h ****    */
1016:Drivers/CMSIS/DSP/Include/arm_math.h ****   __STATIC_FORCEINLINE uint32_t __SHSAX(
1017:Drivers/CMSIS/DSP/Include/arm_math.h ****   uint32_t x,
1018:Drivers/CMSIS/DSP/Include/arm_math.h ****   uint32_t y)
1019:Drivers/CMSIS/DSP/Include/arm_math.h ****   {
1020:Drivers/CMSIS/DSP/Include/arm_math.h ****     q31_t r, s;
1021:Drivers/CMSIS/DSP/Include/arm_math.h **** 
1022:Drivers/CMSIS/DSP/Include/arm_math.h ****     r = (((((q31_t)x << 16) >> 16) + (((q31_t)y      ) >> 16)) >> 1) & (int32_t)0x0000FFFF;
ARM GAS  C:\Users\Joknem\AppData\Local\Temp\ccvCWXA9.s 			page 23


1023:Drivers/CMSIS/DSP/Include/arm_math.h ****     s = (((((q31_t)x      ) >> 16) - (((q31_t)y << 16) >> 16)) >> 1) & (int32_t)0x0000FFFF;
1024:Drivers/CMSIS/DSP/Include/arm_math.h **** 
1025:Drivers/CMSIS/DSP/Include/arm_math.h ****     return ((uint32_t)((s << 16) | (r      )));
1026:Drivers/CMSIS/DSP/Include/arm_math.h ****   }
1027:Drivers/CMSIS/DSP/Include/arm_math.h **** 
1028:Drivers/CMSIS/DSP/Include/arm_math.h **** 
1029:Drivers/CMSIS/DSP/Include/arm_math.h ****   /*
1030:Drivers/CMSIS/DSP/Include/arm_math.h ****    * @brief C custom defined SMUSDX
1031:Drivers/CMSIS/DSP/Include/arm_math.h ****    */
1032:Drivers/CMSIS/DSP/Include/arm_math.h ****   __STATIC_FORCEINLINE uint32_t __SMUSDX(
1033:Drivers/CMSIS/DSP/Include/arm_math.h ****   uint32_t x,
1034:Drivers/CMSIS/DSP/Include/arm_math.h ****   uint32_t y)
1035:Drivers/CMSIS/DSP/Include/arm_math.h ****   {
1036:Drivers/CMSIS/DSP/Include/arm_math.h ****     return ((uint32_t)(((((q31_t)x << 16) >> 16) * (((q31_t)y      ) >> 16)) -
1037:Drivers/CMSIS/DSP/Include/arm_math.h ****                        ((((q31_t)x      ) >> 16) * (((q31_t)y << 16) >> 16))   ));
1038:Drivers/CMSIS/DSP/Include/arm_math.h ****   }
1039:Drivers/CMSIS/DSP/Include/arm_math.h **** 
1040:Drivers/CMSIS/DSP/Include/arm_math.h ****   /*
1041:Drivers/CMSIS/DSP/Include/arm_math.h ****    * @brief C custom defined SMUADX
1042:Drivers/CMSIS/DSP/Include/arm_math.h ****    */
1043:Drivers/CMSIS/DSP/Include/arm_math.h ****   __STATIC_FORCEINLINE uint32_t __SMUADX(
1044:Drivers/CMSIS/DSP/Include/arm_math.h ****   uint32_t x,
1045:Drivers/CMSIS/DSP/Include/arm_math.h ****   uint32_t y)
1046:Drivers/CMSIS/DSP/Include/arm_math.h ****   {
1047:Drivers/CMSIS/DSP/Include/arm_math.h ****     return ((uint32_t)(((((q31_t)x << 16) >> 16) * (((q31_t)y      ) >> 16)) +
1048:Drivers/CMSIS/DSP/Include/arm_math.h ****                        ((((q31_t)x      ) >> 16) * (((q31_t)y << 16) >> 16))   ));
1049:Drivers/CMSIS/DSP/Include/arm_math.h ****   }
1050:Drivers/CMSIS/DSP/Include/arm_math.h **** 
1051:Drivers/CMSIS/DSP/Include/arm_math.h **** 
1052:Drivers/CMSIS/DSP/Include/arm_math.h ****   /*
1053:Drivers/CMSIS/DSP/Include/arm_math.h ****    * @brief C custom defined QADD
1054:Drivers/CMSIS/DSP/Include/arm_math.h ****    */
1055:Drivers/CMSIS/DSP/Include/arm_math.h ****   __STATIC_FORCEINLINE int32_t __QADD(
1056:Drivers/CMSIS/DSP/Include/arm_math.h ****   int32_t x,
1057:Drivers/CMSIS/DSP/Include/arm_math.h ****   int32_t y)
1058:Drivers/CMSIS/DSP/Include/arm_math.h ****   {
1059:Drivers/CMSIS/DSP/Include/arm_math.h ****     return ((int32_t)(clip_q63_to_q31((q63_t)x + (q31_t)y)));
1060:Drivers/CMSIS/DSP/Include/arm_math.h ****   }
1061:Drivers/CMSIS/DSP/Include/arm_math.h **** 
1062:Drivers/CMSIS/DSP/Include/arm_math.h **** 
1063:Drivers/CMSIS/DSP/Include/arm_math.h ****   /*
1064:Drivers/CMSIS/DSP/Include/arm_math.h ****    * @brief C custom defined QSUB
1065:Drivers/CMSIS/DSP/Include/arm_math.h ****    */
1066:Drivers/CMSIS/DSP/Include/arm_math.h ****   __STATIC_FORCEINLINE int32_t __QSUB(
1067:Drivers/CMSIS/DSP/Include/arm_math.h ****   int32_t x,
1068:Drivers/CMSIS/DSP/Include/arm_math.h ****   int32_t y)
1069:Drivers/CMSIS/DSP/Include/arm_math.h ****   {
1070:Drivers/CMSIS/DSP/Include/arm_math.h ****     return ((int32_t)(clip_q63_to_q31((q63_t)x - (q31_t)y)));
1071:Drivers/CMSIS/DSP/Include/arm_math.h ****   }
1072:Drivers/CMSIS/DSP/Include/arm_math.h **** 
1073:Drivers/CMSIS/DSP/Include/arm_math.h **** 
1074:Drivers/CMSIS/DSP/Include/arm_math.h ****   /*
1075:Drivers/CMSIS/DSP/Include/arm_math.h ****    * @brief C custom defined SMLAD
1076:Drivers/CMSIS/DSP/Include/arm_math.h ****    */
1077:Drivers/CMSIS/DSP/Include/arm_math.h ****   __STATIC_FORCEINLINE uint32_t __SMLAD(
1078:Drivers/CMSIS/DSP/Include/arm_math.h ****   uint32_t x,
1079:Drivers/CMSIS/DSP/Include/arm_math.h ****   uint32_t y,
ARM GAS  C:\Users\Joknem\AppData\Local\Temp\ccvCWXA9.s 			page 24


1080:Drivers/CMSIS/DSP/Include/arm_math.h ****   uint32_t sum)
1081:Drivers/CMSIS/DSP/Include/arm_math.h ****   {
1082:Drivers/CMSIS/DSP/Include/arm_math.h ****     return ((uint32_t)(((((q31_t)x << 16) >> 16) * (((q31_t)y << 16) >> 16)) +
1083:Drivers/CMSIS/DSP/Include/arm_math.h ****                        ((((q31_t)x      ) >> 16) * (((q31_t)y      ) >> 16)) +
1084:Drivers/CMSIS/DSP/Include/arm_math.h ****                        ( ((q31_t)sum    )                                  )   ));
1085:Drivers/CMSIS/DSP/Include/arm_math.h ****   }
1086:Drivers/CMSIS/DSP/Include/arm_math.h **** 
1087:Drivers/CMSIS/DSP/Include/arm_math.h **** 
1088:Drivers/CMSIS/DSP/Include/arm_math.h ****   /*
1089:Drivers/CMSIS/DSP/Include/arm_math.h ****    * @brief C custom defined SMLADX
1090:Drivers/CMSIS/DSP/Include/arm_math.h ****    */
1091:Drivers/CMSIS/DSP/Include/arm_math.h ****   __STATIC_FORCEINLINE uint32_t __SMLADX(
1092:Drivers/CMSIS/DSP/Include/arm_math.h ****   uint32_t x,
1093:Drivers/CMSIS/DSP/Include/arm_math.h ****   uint32_t y,
1094:Drivers/CMSIS/DSP/Include/arm_math.h ****   uint32_t sum)
1095:Drivers/CMSIS/DSP/Include/arm_math.h ****   {
1096:Drivers/CMSIS/DSP/Include/arm_math.h ****     return ((uint32_t)(((((q31_t)x << 16) >> 16) * (((q31_t)y      ) >> 16)) +
1097:Drivers/CMSIS/DSP/Include/arm_math.h ****                        ((((q31_t)x      ) >> 16) * (((q31_t)y << 16) >> 16)) +
1098:Drivers/CMSIS/DSP/Include/arm_math.h ****                        ( ((q31_t)sum    )                                  )   ));
1099:Drivers/CMSIS/DSP/Include/arm_math.h ****   }
1100:Drivers/CMSIS/DSP/Include/arm_math.h **** 
1101:Drivers/CMSIS/DSP/Include/arm_math.h **** 
1102:Drivers/CMSIS/DSP/Include/arm_math.h ****   /*
1103:Drivers/CMSIS/DSP/Include/arm_math.h ****    * @brief C custom defined SMLSDX
1104:Drivers/CMSIS/DSP/Include/arm_math.h ****    */
1105:Drivers/CMSIS/DSP/Include/arm_math.h ****   __STATIC_FORCEINLINE uint32_t __SMLSDX(
1106:Drivers/CMSIS/DSP/Include/arm_math.h ****   uint32_t x,
1107:Drivers/CMSIS/DSP/Include/arm_math.h ****   uint32_t y,
1108:Drivers/CMSIS/DSP/Include/arm_math.h ****   uint32_t sum)
1109:Drivers/CMSIS/DSP/Include/arm_math.h ****   {
1110:Drivers/CMSIS/DSP/Include/arm_math.h ****     return ((uint32_t)(((((q31_t)x << 16) >> 16) * (((q31_t)y      ) >> 16)) -
1111:Drivers/CMSIS/DSP/Include/arm_math.h ****                        ((((q31_t)x      ) >> 16) * (((q31_t)y << 16) >> 16)) +
1112:Drivers/CMSIS/DSP/Include/arm_math.h ****                        ( ((q31_t)sum    )                                  )   ));
1113:Drivers/CMSIS/DSP/Include/arm_math.h ****   }
1114:Drivers/CMSIS/DSP/Include/arm_math.h **** 
1115:Drivers/CMSIS/DSP/Include/arm_math.h **** 
1116:Drivers/CMSIS/DSP/Include/arm_math.h ****   /*
1117:Drivers/CMSIS/DSP/Include/arm_math.h ****    * @brief C custom defined SMLALD
1118:Drivers/CMSIS/DSP/Include/arm_math.h ****    */
1119:Drivers/CMSIS/DSP/Include/arm_math.h ****   __STATIC_FORCEINLINE uint64_t __SMLALD(
1120:Drivers/CMSIS/DSP/Include/arm_math.h ****   uint32_t x,
1121:Drivers/CMSIS/DSP/Include/arm_math.h ****   uint32_t y,
1122:Drivers/CMSIS/DSP/Include/arm_math.h ****   uint64_t sum)
1123:Drivers/CMSIS/DSP/Include/arm_math.h ****   {
1124:Drivers/CMSIS/DSP/Include/arm_math.h **** /*  return (sum + ((q15_t) (x >> 16) * (q15_t) (y >> 16)) + ((q15_t) x * (q15_t) y)); */
1125:Drivers/CMSIS/DSP/Include/arm_math.h ****     return ((uint64_t)(((((q31_t)x << 16) >> 16) * (((q31_t)y << 16) >> 16)) +
1126:Drivers/CMSIS/DSP/Include/arm_math.h ****                        ((((q31_t)x      ) >> 16) * (((q31_t)y      ) >> 16)) +
1127:Drivers/CMSIS/DSP/Include/arm_math.h ****                        ( ((q63_t)sum    )                                  )   ));
1128:Drivers/CMSIS/DSP/Include/arm_math.h ****   }
1129:Drivers/CMSIS/DSP/Include/arm_math.h **** 
1130:Drivers/CMSIS/DSP/Include/arm_math.h **** 
1131:Drivers/CMSIS/DSP/Include/arm_math.h ****   /*
1132:Drivers/CMSIS/DSP/Include/arm_math.h ****    * @brief C custom defined SMLALDX
1133:Drivers/CMSIS/DSP/Include/arm_math.h ****    */
1134:Drivers/CMSIS/DSP/Include/arm_math.h ****   __STATIC_FORCEINLINE uint64_t __SMLALDX(
1135:Drivers/CMSIS/DSP/Include/arm_math.h ****   uint32_t x,
1136:Drivers/CMSIS/DSP/Include/arm_math.h ****   uint32_t y,
ARM GAS  C:\Users\Joknem\AppData\Local\Temp\ccvCWXA9.s 			page 25


1137:Drivers/CMSIS/DSP/Include/arm_math.h ****   uint64_t sum)
1138:Drivers/CMSIS/DSP/Include/arm_math.h ****   {
1139:Drivers/CMSIS/DSP/Include/arm_math.h **** /*  return (sum + ((q15_t) (x >> 16) * (q15_t) y)) + ((q15_t) x * (q15_t) (y >> 16)); */
1140:Drivers/CMSIS/DSP/Include/arm_math.h ****     return ((uint64_t)(((((q31_t)x << 16) >> 16) * (((q31_t)y      ) >> 16)) +
1141:Drivers/CMSIS/DSP/Include/arm_math.h ****                        ((((q31_t)x      ) >> 16) * (((q31_t)y << 16) >> 16)) +
1142:Drivers/CMSIS/DSP/Include/arm_math.h ****                        ( ((q63_t)sum    )                                  )   ));
1143:Drivers/CMSIS/DSP/Include/arm_math.h ****   }
1144:Drivers/CMSIS/DSP/Include/arm_math.h **** 
1145:Drivers/CMSIS/DSP/Include/arm_math.h **** 
1146:Drivers/CMSIS/DSP/Include/arm_math.h ****   /*
1147:Drivers/CMSIS/DSP/Include/arm_math.h ****    * @brief C custom defined SMUAD
1148:Drivers/CMSIS/DSP/Include/arm_math.h ****    */
1149:Drivers/CMSIS/DSP/Include/arm_math.h ****   __STATIC_FORCEINLINE uint32_t __SMUAD(
1150:Drivers/CMSIS/DSP/Include/arm_math.h ****   uint32_t x,
1151:Drivers/CMSIS/DSP/Include/arm_math.h ****   uint32_t y)
1152:Drivers/CMSIS/DSP/Include/arm_math.h ****   {
1153:Drivers/CMSIS/DSP/Include/arm_math.h ****     return ((uint32_t)(((((q31_t)x << 16) >> 16) * (((q31_t)y << 16) >> 16)) +
1154:Drivers/CMSIS/DSP/Include/arm_math.h ****                        ((((q31_t)x      ) >> 16) * (((q31_t)y      ) >> 16))   ));
1155:Drivers/CMSIS/DSP/Include/arm_math.h ****   }
1156:Drivers/CMSIS/DSP/Include/arm_math.h **** 
1157:Drivers/CMSIS/DSP/Include/arm_math.h **** 
1158:Drivers/CMSIS/DSP/Include/arm_math.h ****   /*
1159:Drivers/CMSIS/DSP/Include/arm_math.h ****    * @brief C custom defined SMUSD
1160:Drivers/CMSIS/DSP/Include/arm_math.h ****    */
1161:Drivers/CMSIS/DSP/Include/arm_math.h ****   __STATIC_FORCEINLINE uint32_t __SMUSD(
1162:Drivers/CMSIS/DSP/Include/arm_math.h ****   uint32_t x,
1163:Drivers/CMSIS/DSP/Include/arm_math.h ****   uint32_t y)
1164:Drivers/CMSIS/DSP/Include/arm_math.h ****   {
1165:Drivers/CMSIS/DSP/Include/arm_math.h ****     return ((uint32_t)(((((q31_t)x << 16) >> 16) * (((q31_t)y << 16) >> 16)) -
1166:Drivers/CMSIS/DSP/Include/arm_math.h ****                        ((((q31_t)x      ) >> 16) * (((q31_t)y      ) >> 16))   ));
1167:Drivers/CMSIS/DSP/Include/arm_math.h ****   }
1168:Drivers/CMSIS/DSP/Include/arm_math.h **** 
1169:Drivers/CMSIS/DSP/Include/arm_math.h **** 
1170:Drivers/CMSIS/DSP/Include/arm_math.h ****   /*
1171:Drivers/CMSIS/DSP/Include/arm_math.h ****    * @brief C custom defined SXTB16
1172:Drivers/CMSIS/DSP/Include/arm_math.h ****    */
1173:Drivers/CMSIS/DSP/Include/arm_math.h ****   __STATIC_FORCEINLINE uint32_t __SXTB16(
1174:Drivers/CMSIS/DSP/Include/arm_math.h ****   uint32_t x)
1175:Drivers/CMSIS/DSP/Include/arm_math.h ****   {
1176:Drivers/CMSIS/DSP/Include/arm_math.h ****     return ((uint32_t)(((((q31_t)x << 24) >> 24) & (q31_t)0x0000FFFF) |
1177:Drivers/CMSIS/DSP/Include/arm_math.h ****                        ((((q31_t)x <<  8) >>  8) & (q31_t)0xFFFF0000)  ));
1178:Drivers/CMSIS/DSP/Include/arm_math.h ****   }
1179:Drivers/CMSIS/DSP/Include/arm_math.h **** 
1180:Drivers/CMSIS/DSP/Include/arm_math.h ****   /*
1181:Drivers/CMSIS/DSP/Include/arm_math.h ****    * @brief C custom defined SMMLA
1182:Drivers/CMSIS/DSP/Include/arm_math.h ****    */
1183:Drivers/CMSIS/DSP/Include/arm_math.h ****   __STATIC_FORCEINLINE int32_t __SMMLA(
1184:Drivers/CMSIS/DSP/Include/arm_math.h ****   int32_t x,
1185:Drivers/CMSIS/DSP/Include/arm_math.h ****   int32_t y,
1186:Drivers/CMSIS/DSP/Include/arm_math.h ****   int32_t sum)
1187:Drivers/CMSIS/DSP/Include/arm_math.h ****   {
1188:Drivers/CMSIS/DSP/Include/arm_math.h ****     return (sum + (int32_t) (((int64_t) x * y) >> 32));
1189:Drivers/CMSIS/DSP/Include/arm_math.h ****   }
1190:Drivers/CMSIS/DSP/Include/arm_math.h **** 
1191:Drivers/CMSIS/DSP/Include/arm_math.h **** #endif /* !defined (ARM_MATH_DSP) */
1192:Drivers/CMSIS/DSP/Include/arm_math.h **** 
1193:Drivers/CMSIS/DSP/Include/arm_math.h **** 
ARM GAS  C:\Users\Joknem\AppData\Local\Temp\ccvCWXA9.s 			page 26


1194:Drivers/CMSIS/DSP/Include/arm_math.h ****   /**
1195:Drivers/CMSIS/DSP/Include/arm_math.h ****    * @brief Instance structure for the Q7 FIR filter.
1196:Drivers/CMSIS/DSP/Include/arm_math.h ****    */
1197:Drivers/CMSIS/DSP/Include/arm_math.h ****   typedef struct
1198:Drivers/CMSIS/DSP/Include/arm_math.h ****   {
1199:Drivers/CMSIS/DSP/Include/arm_math.h ****           uint16_t numTaps;        /**< number of filter coefficients in the filter. */
1200:Drivers/CMSIS/DSP/Include/arm_math.h ****           q7_t *pState;            /**< points to the state variable array. The array is of length 
1201:Drivers/CMSIS/DSP/Include/arm_math.h ****     const q7_t *pCoeffs;           /**< points to the coefficient array. The array is of length num
1202:Drivers/CMSIS/DSP/Include/arm_math.h ****   } arm_fir_instance_q7;
1203:Drivers/CMSIS/DSP/Include/arm_math.h **** 
1204:Drivers/CMSIS/DSP/Include/arm_math.h ****   /**
1205:Drivers/CMSIS/DSP/Include/arm_math.h ****    * @brief Instance structure for the Q15 FIR filter.
1206:Drivers/CMSIS/DSP/Include/arm_math.h ****    */
1207:Drivers/CMSIS/DSP/Include/arm_math.h ****   typedef struct
1208:Drivers/CMSIS/DSP/Include/arm_math.h ****   {
1209:Drivers/CMSIS/DSP/Include/arm_math.h ****           uint16_t numTaps;         /**< number of filter coefficients in the filter. */
1210:Drivers/CMSIS/DSP/Include/arm_math.h ****           q15_t *pState;            /**< points to the state variable array. The array is of length
1211:Drivers/CMSIS/DSP/Include/arm_math.h ****     const q15_t *pCoeffs;           /**< points to the coefficient array. The array is of length nu
1212:Drivers/CMSIS/DSP/Include/arm_math.h ****   } arm_fir_instance_q15;
1213:Drivers/CMSIS/DSP/Include/arm_math.h **** 
1214:Drivers/CMSIS/DSP/Include/arm_math.h ****   /**
1215:Drivers/CMSIS/DSP/Include/arm_math.h ****    * @brief Instance structure for the Q31 FIR filter.
1216:Drivers/CMSIS/DSP/Include/arm_math.h ****    */
1217:Drivers/CMSIS/DSP/Include/arm_math.h ****   typedef struct
1218:Drivers/CMSIS/DSP/Include/arm_math.h ****   {
1219:Drivers/CMSIS/DSP/Include/arm_math.h ****           uint16_t numTaps;         /**< number of filter coefficients in the filter. */
1220:Drivers/CMSIS/DSP/Include/arm_math.h ****           q31_t *pState;            /**< points to the state variable array. The array is of length
1221:Drivers/CMSIS/DSP/Include/arm_math.h ****     const q31_t *pCoeffs;           /**< points to the coefficient array. The array is of length nu
1222:Drivers/CMSIS/DSP/Include/arm_math.h ****   } arm_fir_instance_q31;
1223:Drivers/CMSIS/DSP/Include/arm_math.h **** 
1224:Drivers/CMSIS/DSP/Include/arm_math.h ****   /**
1225:Drivers/CMSIS/DSP/Include/arm_math.h ****    * @brief Instance structure for the floating-point FIR filter.
1226:Drivers/CMSIS/DSP/Include/arm_math.h ****    */
1227:Drivers/CMSIS/DSP/Include/arm_math.h ****   typedef struct
1228:Drivers/CMSIS/DSP/Include/arm_math.h ****   {
1229:Drivers/CMSIS/DSP/Include/arm_math.h ****           uint16_t numTaps;     /**< number of filter coefficients in the filter. */
1230:Drivers/CMSIS/DSP/Include/arm_math.h ****           float32_t *pState;    /**< points to the state variable array. The array is of length num
1231:Drivers/CMSIS/DSP/Include/arm_math.h ****     const float32_t *pCoeffs;   /**< points to the coefficient array. The array is of length numTap
1232:Drivers/CMSIS/DSP/Include/arm_math.h ****   } arm_fir_instance_f32;
1233:Drivers/CMSIS/DSP/Include/arm_math.h **** 
1234:Drivers/CMSIS/DSP/Include/arm_math.h ****   /**
1235:Drivers/CMSIS/DSP/Include/arm_math.h ****    * @brief Processing function for the Q7 FIR filter.
1236:Drivers/CMSIS/DSP/Include/arm_math.h ****    * @param[in]  S          points to an instance of the Q7 FIR filter structure.
1237:Drivers/CMSIS/DSP/Include/arm_math.h ****    * @param[in]  pSrc       points to the block of input data.
1238:Drivers/CMSIS/DSP/Include/arm_math.h ****    * @param[out] pDst       points to the block of output data.
1239:Drivers/CMSIS/DSP/Include/arm_math.h ****    * @param[in]  blockSize  number of samples to process.
1240:Drivers/CMSIS/DSP/Include/arm_math.h ****    */
1241:Drivers/CMSIS/DSP/Include/arm_math.h ****   void arm_fir_q7(
1242:Drivers/CMSIS/DSP/Include/arm_math.h ****   const arm_fir_instance_q7 * S,
1243:Drivers/CMSIS/DSP/Include/arm_math.h ****   const q7_t * pSrc,
1244:Drivers/CMSIS/DSP/Include/arm_math.h ****         q7_t * pDst,
1245:Drivers/CMSIS/DSP/Include/arm_math.h ****         uint32_t blockSize);
1246:Drivers/CMSIS/DSP/Include/arm_math.h **** 
1247:Drivers/CMSIS/DSP/Include/arm_math.h ****   /**
1248:Drivers/CMSIS/DSP/Include/arm_math.h ****    * @brief  Initialization function for the Q7 FIR filter.
1249:Drivers/CMSIS/DSP/Include/arm_math.h ****    * @param[in,out] S          points to an instance of the Q7 FIR structure.
1250:Drivers/CMSIS/DSP/Include/arm_math.h ****    * @param[in]     numTaps    Number of filter coefficients in the filter.
ARM GAS  C:\Users\Joknem\AppData\Local\Temp\ccvCWXA9.s 			page 27


1251:Drivers/CMSIS/DSP/Include/arm_math.h ****    * @param[in]     pCoeffs    points to the filter coefficients.
1252:Drivers/CMSIS/DSP/Include/arm_math.h ****    * @param[in]     pState     points to the state buffer.
1253:Drivers/CMSIS/DSP/Include/arm_math.h ****    * @param[in]     blockSize  number of samples that are processed.
1254:Drivers/CMSIS/DSP/Include/arm_math.h ****    */
1255:Drivers/CMSIS/DSP/Include/arm_math.h ****   void arm_fir_init_q7(
1256:Drivers/CMSIS/DSP/Include/arm_math.h ****         arm_fir_instance_q7 * S,
1257:Drivers/CMSIS/DSP/Include/arm_math.h ****         uint16_t numTaps,
1258:Drivers/CMSIS/DSP/Include/arm_math.h ****   const q7_t * pCoeffs,
1259:Drivers/CMSIS/DSP/Include/arm_math.h ****         q7_t * pState,
1260:Drivers/CMSIS/DSP/Include/arm_math.h ****         uint32_t blockSize);
1261:Drivers/CMSIS/DSP/Include/arm_math.h **** 
1262:Drivers/CMSIS/DSP/Include/arm_math.h ****   /**
1263:Drivers/CMSIS/DSP/Include/arm_math.h ****    * @brief Processing function for the Q15 FIR filter.
1264:Drivers/CMSIS/DSP/Include/arm_math.h ****    * @param[in]  S          points to an instance of the Q15 FIR structure.
1265:Drivers/CMSIS/DSP/Include/arm_math.h ****    * @param[in]  pSrc       points to the block of input data.
1266:Drivers/CMSIS/DSP/Include/arm_math.h ****    * @param[out] pDst       points to the block of output data.
1267:Drivers/CMSIS/DSP/Include/arm_math.h ****    * @param[in]  blockSize  number of samples to process.
1268:Drivers/CMSIS/DSP/Include/arm_math.h ****    */
1269:Drivers/CMSIS/DSP/Include/arm_math.h ****   void arm_fir_q15(
1270:Drivers/CMSIS/DSP/Include/arm_math.h ****   const arm_fir_instance_q15 * S,
1271:Drivers/CMSIS/DSP/Include/arm_math.h ****   const q15_t * pSrc,
1272:Drivers/CMSIS/DSP/Include/arm_math.h ****         q15_t * pDst,
1273:Drivers/CMSIS/DSP/Include/arm_math.h ****         uint32_t blockSize);
1274:Drivers/CMSIS/DSP/Include/arm_math.h **** 
1275:Drivers/CMSIS/DSP/Include/arm_math.h ****   /**
1276:Drivers/CMSIS/DSP/Include/arm_math.h ****    * @brief Processing function for the fast Q15 FIR filter (fast version).
1277:Drivers/CMSIS/DSP/Include/arm_math.h ****    * @param[in]  S          points to an instance of the Q15 FIR filter structure.
1278:Drivers/CMSIS/DSP/Include/arm_math.h ****    * @param[in]  pSrc       points to the block of input data.
1279:Drivers/CMSIS/DSP/Include/arm_math.h ****    * @param[out] pDst       points to the block of output data.
1280:Drivers/CMSIS/DSP/Include/arm_math.h ****    * @param[in]  blockSize  number of samples to process.
1281:Drivers/CMSIS/DSP/Include/arm_math.h ****    */
1282:Drivers/CMSIS/DSP/Include/arm_math.h ****   void arm_fir_fast_q15(
1283:Drivers/CMSIS/DSP/Include/arm_math.h ****   const arm_fir_instance_q15 * S,
1284:Drivers/CMSIS/DSP/Include/arm_math.h ****   const q15_t * pSrc,
1285:Drivers/CMSIS/DSP/Include/arm_math.h ****         q15_t * pDst,
1286:Drivers/CMSIS/DSP/Include/arm_math.h ****         uint32_t blockSize);
1287:Drivers/CMSIS/DSP/Include/arm_math.h **** 
1288:Drivers/CMSIS/DSP/Include/arm_math.h ****   /**
1289:Drivers/CMSIS/DSP/Include/arm_math.h ****    * @brief  Initialization function for the Q15 FIR filter.
1290:Drivers/CMSIS/DSP/Include/arm_math.h ****    * @param[in,out] S          points to an instance of the Q15 FIR filter structure.
1291:Drivers/CMSIS/DSP/Include/arm_math.h ****    * @param[in]     numTaps    Number of filter coefficients in the filter. Must be even and greate
1292:Drivers/CMSIS/DSP/Include/arm_math.h ****    * @param[in]     pCoeffs    points to the filter coefficients.
1293:Drivers/CMSIS/DSP/Include/arm_math.h ****    * @param[in]     pState     points to the state buffer.
1294:Drivers/CMSIS/DSP/Include/arm_math.h ****    * @param[in]     blockSize  number of samples that are processed at a time.
1295:Drivers/CMSIS/DSP/Include/arm_math.h ****    * @return     The function returns either
1296:Drivers/CMSIS/DSP/Include/arm_math.h ****    * <code>ARM_MATH_SUCCESS</code> if initialization was successful or
1297:Drivers/CMSIS/DSP/Include/arm_math.h ****    * <code>ARM_MATH_ARGUMENT_ERROR</code> if <code>numTaps</code> is not a supported value.
1298:Drivers/CMSIS/DSP/Include/arm_math.h ****    */
1299:Drivers/CMSIS/DSP/Include/arm_math.h ****   arm_status arm_fir_init_q15(
1300:Drivers/CMSIS/DSP/Include/arm_math.h ****         arm_fir_instance_q15 * S,
1301:Drivers/CMSIS/DSP/Include/arm_math.h ****         uint16_t numTaps,
1302:Drivers/CMSIS/DSP/Include/arm_math.h ****   const q15_t * pCoeffs,
1303:Drivers/CMSIS/DSP/Include/arm_math.h ****         q15_t * pState,
1304:Drivers/CMSIS/DSP/Include/arm_math.h ****         uint32_t blockSize);
1305:Drivers/CMSIS/DSP/Include/arm_math.h **** 
1306:Drivers/CMSIS/DSP/Include/arm_math.h ****   /**
1307:Drivers/CMSIS/DSP/Include/arm_math.h ****    * @brief Processing function for the Q31 FIR filter.
ARM GAS  C:\Users\Joknem\AppData\Local\Temp\ccvCWXA9.s 			page 28


1308:Drivers/CMSIS/DSP/Include/arm_math.h ****    * @param[in]  S          points to an instance of the Q31 FIR filter structure.
1309:Drivers/CMSIS/DSP/Include/arm_math.h ****    * @param[in]  pSrc       points to the block of input data.
1310:Drivers/CMSIS/DSP/Include/arm_math.h ****    * @param[out] pDst       points to the block of output data.
1311:Drivers/CMSIS/DSP/Include/arm_math.h ****    * @param[in]  blockSize  number of samples to process.
1312:Drivers/CMSIS/DSP/Include/arm_math.h ****    */
1313:Drivers/CMSIS/DSP/Include/arm_math.h ****   void arm_fir_q31(
1314:Drivers/CMSIS/DSP/Include/arm_math.h ****   const arm_fir_instance_q31 * S,
1315:Drivers/CMSIS/DSP/Include/arm_math.h ****   const q31_t * pSrc,
1316:Drivers/CMSIS/DSP/Include/arm_math.h ****         q31_t * pDst,
1317:Drivers/CMSIS/DSP/Include/arm_math.h ****         uint32_t blockSize);
1318:Drivers/CMSIS/DSP/Include/arm_math.h **** 
1319:Drivers/CMSIS/DSP/Include/arm_math.h ****   /**
1320:Drivers/CMSIS/DSP/Include/arm_math.h ****    * @brief Processing function for the fast Q31 FIR filter (fast version).
1321:Drivers/CMSIS/DSP/Include/arm_math.h ****    * @param[in]  S          points to an instance of the Q31 FIR filter structure.
1322:Drivers/CMSIS/DSP/Include/arm_math.h ****    * @param[in]  pSrc       points to the block of input data.
1323:Drivers/CMSIS/DSP/Include/arm_math.h ****    * @param[out] pDst       points to the block of output data.
1324:Drivers/CMSIS/DSP/Include/arm_math.h ****    * @param[in]  blockSize  number of samples to process.
1325:Drivers/CMSIS/DSP/Include/arm_math.h ****    */
1326:Drivers/CMSIS/DSP/Include/arm_math.h ****   void arm_fir_fast_q31(
1327:Drivers/CMSIS/DSP/Include/arm_math.h ****   const arm_fir_instance_q31 * S,
1328:Drivers/CMSIS/DSP/Include/arm_math.h ****   const q31_t * pSrc,
1329:Drivers/CMSIS/DSP/Include/arm_math.h ****         q31_t * pDst,
1330:Drivers/CMSIS/DSP/Include/arm_math.h ****         uint32_t blockSize);
1331:Drivers/CMSIS/DSP/Include/arm_math.h **** 
1332:Drivers/CMSIS/DSP/Include/arm_math.h ****   /**
1333:Drivers/CMSIS/DSP/Include/arm_math.h ****    * @brief  Initialization function for the Q31 FIR filter.
1334:Drivers/CMSIS/DSP/Include/arm_math.h ****    * @param[in,out] S          points to an instance of the Q31 FIR structure.
1335:Drivers/CMSIS/DSP/Include/arm_math.h ****    * @param[in]     numTaps    Number of filter coefficients in the filter.
1336:Drivers/CMSIS/DSP/Include/arm_math.h ****    * @param[in]     pCoeffs    points to the filter coefficients.
1337:Drivers/CMSIS/DSP/Include/arm_math.h ****    * @param[in]     pState     points to the state buffer.
1338:Drivers/CMSIS/DSP/Include/arm_math.h ****    * @param[in]     blockSize  number of samples that are processed at a time.
1339:Drivers/CMSIS/DSP/Include/arm_math.h ****    */
1340:Drivers/CMSIS/DSP/Include/arm_math.h ****   void arm_fir_init_q31(
1341:Drivers/CMSIS/DSP/Include/arm_math.h ****         arm_fir_instance_q31 * S,
1342:Drivers/CMSIS/DSP/Include/arm_math.h ****         uint16_t numTaps,
1343:Drivers/CMSIS/DSP/Include/arm_math.h ****   const q31_t * pCoeffs,
1344:Drivers/CMSIS/DSP/Include/arm_math.h ****         q31_t * pState,
1345:Drivers/CMSIS/DSP/Include/arm_math.h ****         uint32_t blockSize);
1346:Drivers/CMSIS/DSP/Include/arm_math.h **** 
1347:Drivers/CMSIS/DSP/Include/arm_math.h ****   /**
1348:Drivers/CMSIS/DSP/Include/arm_math.h ****    * @brief Processing function for the floating-point FIR filter.
1349:Drivers/CMSIS/DSP/Include/arm_math.h ****    * @param[in]  S          points to an instance of the floating-point FIR structure.
1350:Drivers/CMSIS/DSP/Include/arm_math.h ****    * @param[in]  pSrc       points to the block of input data.
1351:Drivers/CMSIS/DSP/Include/arm_math.h ****    * @param[out] pDst       points to the block of output data.
1352:Drivers/CMSIS/DSP/Include/arm_math.h ****    * @param[in]  blockSize  number of samples to process.
1353:Drivers/CMSIS/DSP/Include/arm_math.h ****    */
1354:Drivers/CMSIS/DSP/Include/arm_math.h ****   void arm_fir_f32(
1355:Drivers/CMSIS/DSP/Include/arm_math.h ****   const arm_fir_instance_f32 * S,
1356:Drivers/CMSIS/DSP/Include/arm_math.h ****   const float32_t * pSrc,
1357:Drivers/CMSIS/DSP/Include/arm_math.h ****         float32_t * pDst,
1358:Drivers/CMSIS/DSP/Include/arm_math.h ****         uint32_t blockSize);
1359:Drivers/CMSIS/DSP/Include/arm_math.h **** 
1360:Drivers/CMSIS/DSP/Include/arm_math.h ****   /**
1361:Drivers/CMSIS/DSP/Include/arm_math.h ****    * @brief  Initialization function for the floating-point FIR filter.
1362:Drivers/CMSIS/DSP/Include/arm_math.h ****    * @param[in,out] S          points to an instance of the floating-point FIR filter structure.
1363:Drivers/CMSIS/DSP/Include/arm_math.h ****    * @param[in]     numTaps    Number of filter coefficients in the filter.
1364:Drivers/CMSIS/DSP/Include/arm_math.h ****    * @param[in]     pCoeffs    points to the filter coefficients.
ARM GAS  C:\Users\Joknem\AppData\Local\Temp\ccvCWXA9.s 			page 29


1365:Drivers/CMSIS/DSP/Include/arm_math.h ****    * @param[in]     pState     points to the state buffer.
1366:Drivers/CMSIS/DSP/Include/arm_math.h ****    * @param[in]     blockSize  number of samples that are processed at a time.
1367:Drivers/CMSIS/DSP/Include/arm_math.h ****    */
1368:Drivers/CMSIS/DSP/Include/arm_math.h ****   void arm_fir_init_f32(
1369:Drivers/CMSIS/DSP/Include/arm_math.h ****         arm_fir_instance_f32 * S,
1370:Drivers/CMSIS/DSP/Include/arm_math.h ****         uint16_t numTaps,
1371:Drivers/CMSIS/DSP/Include/arm_math.h ****   const float32_t * pCoeffs,
1372:Drivers/CMSIS/DSP/Include/arm_math.h ****         float32_t * pState,
1373:Drivers/CMSIS/DSP/Include/arm_math.h ****         uint32_t blockSize);
1374:Drivers/CMSIS/DSP/Include/arm_math.h **** 
1375:Drivers/CMSIS/DSP/Include/arm_math.h ****   /**
1376:Drivers/CMSIS/DSP/Include/arm_math.h ****    * @brief Instance structure for the Q15 Biquad cascade filter.
1377:Drivers/CMSIS/DSP/Include/arm_math.h ****    */
1378:Drivers/CMSIS/DSP/Include/arm_math.h ****   typedef struct
1379:Drivers/CMSIS/DSP/Include/arm_math.h ****   {
1380:Drivers/CMSIS/DSP/Include/arm_math.h ****           int8_t numStages;        /**< number of 2nd order stages in the filter.  Overall order is
1381:Drivers/CMSIS/DSP/Include/arm_math.h ****           q15_t *pState;           /**< Points to the array of state coefficients.  The array is of
1382:Drivers/CMSIS/DSP/Include/arm_math.h ****     const q15_t *pCoeffs;          /**< Points to the array of coefficients.  The array is of lengt
1383:Drivers/CMSIS/DSP/Include/arm_math.h ****           int8_t postShift;        /**< Additional shift, in bits, applied to each output sample. *
1384:Drivers/CMSIS/DSP/Include/arm_math.h ****   } arm_biquad_casd_df1_inst_q15;
1385:Drivers/CMSIS/DSP/Include/arm_math.h **** 
1386:Drivers/CMSIS/DSP/Include/arm_math.h ****   /**
1387:Drivers/CMSIS/DSP/Include/arm_math.h ****    * @brief Instance structure for the Q31 Biquad cascade filter.
1388:Drivers/CMSIS/DSP/Include/arm_math.h ****    */
1389:Drivers/CMSIS/DSP/Include/arm_math.h ****   typedef struct
1390:Drivers/CMSIS/DSP/Include/arm_math.h ****   {
1391:Drivers/CMSIS/DSP/Include/arm_math.h ****           uint32_t numStages;      /**< number of 2nd order stages in the filter.  Overall order is
1392:Drivers/CMSIS/DSP/Include/arm_math.h ****           q31_t *pState;           /**< Points to the array of state coefficients.  The array is of
1393:Drivers/CMSIS/DSP/Include/arm_math.h ****     const q31_t *pCoeffs;          /**< Points to the array of coefficients.  The array is of lengt
1394:Drivers/CMSIS/DSP/Include/arm_math.h ****           uint8_t postShift;       /**< Additional shift, in bits, applied to each output sample. *
1395:Drivers/CMSIS/DSP/Include/arm_math.h ****   } arm_biquad_casd_df1_inst_q31;
1396:Drivers/CMSIS/DSP/Include/arm_math.h **** 
1397:Drivers/CMSIS/DSP/Include/arm_math.h ****   /**
1398:Drivers/CMSIS/DSP/Include/arm_math.h ****    * @brief Instance structure for the floating-point Biquad cascade filter.
1399:Drivers/CMSIS/DSP/Include/arm_math.h ****    */
1400:Drivers/CMSIS/DSP/Include/arm_math.h ****   typedef struct
1401:Drivers/CMSIS/DSP/Include/arm_math.h ****   {
1402:Drivers/CMSIS/DSP/Include/arm_math.h ****           uint32_t numStages;      /**< number of 2nd order stages in the filter.  Overall order is
1403:Drivers/CMSIS/DSP/Include/arm_math.h ****           float32_t *pState;       /**< Points to the array of state coefficients.  The array is of
1404:Drivers/CMSIS/DSP/Include/arm_math.h ****     const float32_t *pCoeffs;      /**< Points to the array of coefficients.  The array is of lengt
1405:Drivers/CMSIS/DSP/Include/arm_math.h ****   } arm_biquad_casd_df1_inst_f32;
1406:Drivers/CMSIS/DSP/Include/arm_math.h **** 
1407:Drivers/CMSIS/DSP/Include/arm_math.h ****   /**
1408:Drivers/CMSIS/DSP/Include/arm_math.h ****    * @brief Processing function for the Q15 Biquad cascade filter.
1409:Drivers/CMSIS/DSP/Include/arm_math.h ****    * @param[in]  S          points to an instance of the Q15 Biquad cascade structure.
1410:Drivers/CMSIS/DSP/Include/arm_math.h ****    * @param[in]  pSrc       points to the block of input data.
1411:Drivers/CMSIS/DSP/Include/arm_math.h ****    * @param[out] pDst       points to the block of output data.
1412:Drivers/CMSIS/DSP/Include/arm_math.h ****    * @param[in]  blockSize  number of samples to process.
1413:Drivers/CMSIS/DSP/Include/arm_math.h ****    */
1414:Drivers/CMSIS/DSP/Include/arm_math.h ****   void arm_biquad_cascade_df1_q15(
1415:Drivers/CMSIS/DSP/Include/arm_math.h ****   const arm_biquad_casd_df1_inst_q15 * S,
1416:Drivers/CMSIS/DSP/Include/arm_math.h ****   const q15_t * pSrc,
1417:Drivers/CMSIS/DSP/Include/arm_math.h ****         q15_t * pDst,
1418:Drivers/CMSIS/DSP/Include/arm_math.h ****         uint32_t blockSize);
1419:Drivers/CMSIS/DSP/Include/arm_math.h **** 
1420:Drivers/CMSIS/DSP/Include/arm_math.h ****   /**
1421:Drivers/CMSIS/DSP/Include/arm_math.h ****    * @brief  Initialization function for the Q15 Biquad cascade filter.
ARM GAS  C:\Users\Joknem\AppData\Local\Temp\ccvCWXA9.s 			page 30


1422:Drivers/CMSIS/DSP/Include/arm_math.h ****    * @param[in,out] S          points to an instance of the Q15 Biquad cascade structure.
1423:Drivers/CMSIS/DSP/Include/arm_math.h ****    * @param[in]     numStages  number of 2nd order stages in the filter.
1424:Drivers/CMSIS/DSP/Include/arm_math.h ****    * @param[in]     pCoeffs    points to the filter coefficients.
1425:Drivers/CMSIS/DSP/Include/arm_math.h ****    * @param[in]     pState     points to the state buffer.
1426:Drivers/CMSIS/DSP/Include/arm_math.h ****    * @param[in]     postShift  Shift to be applied to the output. Varies according to the coefficie
1427:Drivers/CMSIS/DSP/Include/arm_math.h ****    */
1428:Drivers/CMSIS/DSP/Include/arm_math.h ****   void arm_biquad_cascade_df1_init_q15(
1429:Drivers/CMSIS/DSP/Include/arm_math.h ****         arm_biquad_casd_df1_inst_q15 * S,
1430:Drivers/CMSIS/DSP/Include/arm_math.h ****         uint8_t numStages,
1431:Drivers/CMSIS/DSP/Include/arm_math.h ****   const q15_t * pCoeffs,
1432:Drivers/CMSIS/DSP/Include/arm_math.h ****         q15_t * pState,
1433:Drivers/CMSIS/DSP/Include/arm_math.h ****         int8_t postShift);
1434:Drivers/CMSIS/DSP/Include/arm_math.h **** 
1435:Drivers/CMSIS/DSP/Include/arm_math.h ****   /**
1436:Drivers/CMSIS/DSP/Include/arm_math.h ****    * @brief Fast but less precise processing function for the Q15 Biquad cascade filter for Cortex-
1437:Drivers/CMSIS/DSP/Include/arm_math.h ****    * @param[in]  S          points to an instance of the Q15 Biquad cascade structure.
1438:Drivers/CMSIS/DSP/Include/arm_math.h ****    * @param[in]  pSrc       points to the block of input data.
1439:Drivers/CMSIS/DSP/Include/arm_math.h ****    * @param[out] pDst       points to the block of output data.
1440:Drivers/CMSIS/DSP/Include/arm_math.h ****    * @param[in]  blockSize  number of samples to process.
1441:Drivers/CMSIS/DSP/Include/arm_math.h ****    */
1442:Drivers/CMSIS/DSP/Include/arm_math.h ****   void arm_biquad_cascade_df1_fast_q15(
1443:Drivers/CMSIS/DSP/Include/arm_math.h ****   const arm_biquad_casd_df1_inst_q15 * S,
1444:Drivers/CMSIS/DSP/Include/arm_math.h ****   const q15_t * pSrc,
1445:Drivers/CMSIS/DSP/Include/arm_math.h ****         q15_t * pDst,
1446:Drivers/CMSIS/DSP/Include/arm_math.h ****         uint32_t blockSize);
1447:Drivers/CMSIS/DSP/Include/arm_math.h **** 
1448:Drivers/CMSIS/DSP/Include/arm_math.h ****   /**
1449:Drivers/CMSIS/DSP/Include/arm_math.h ****    * @brief Processing function for the Q31 Biquad cascade filter
1450:Drivers/CMSIS/DSP/Include/arm_math.h ****    * @param[in]  S          points to an instance of the Q31 Biquad cascade structure.
1451:Drivers/CMSIS/DSP/Include/arm_math.h ****    * @param[in]  pSrc       points to the block of input data.
1452:Drivers/CMSIS/DSP/Include/arm_math.h ****    * @param[out] pDst       points to the block of output data.
1453:Drivers/CMSIS/DSP/Include/arm_math.h ****    * @param[in]  blockSize  number of samples to process.
1454:Drivers/CMSIS/DSP/Include/arm_math.h ****    */
1455:Drivers/CMSIS/DSP/Include/arm_math.h ****   void arm_biquad_cascade_df1_q31(
1456:Drivers/CMSIS/DSP/Include/arm_math.h ****   const arm_biquad_casd_df1_inst_q31 * S,
1457:Drivers/CMSIS/DSP/Include/arm_math.h ****   const q31_t * pSrc,
1458:Drivers/CMSIS/DSP/Include/arm_math.h ****         q31_t * pDst,
1459:Drivers/CMSIS/DSP/Include/arm_math.h ****         uint32_t blockSize);
1460:Drivers/CMSIS/DSP/Include/arm_math.h **** 
1461:Drivers/CMSIS/DSP/Include/arm_math.h ****   /**
1462:Drivers/CMSIS/DSP/Include/arm_math.h ****    * @brief Fast but less precise processing function for the Q31 Biquad cascade filter for Cortex-
1463:Drivers/CMSIS/DSP/Include/arm_math.h ****    * @param[in]  S          points to an instance of the Q31 Biquad cascade structure.
1464:Drivers/CMSIS/DSP/Include/arm_math.h ****    * @param[in]  pSrc       points to the block of input data.
1465:Drivers/CMSIS/DSP/Include/arm_math.h ****    * @param[out] pDst       points to the block of output data.
1466:Drivers/CMSIS/DSP/Include/arm_math.h ****    * @param[in]  blockSize  number of samples to process.
1467:Drivers/CMSIS/DSP/Include/arm_math.h ****    */
1468:Drivers/CMSIS/DSP/Include/arm_math.h ****   void arm_biquad_cascade_df1_fast_q31(
1469:Drivers/CMSIS/DSP/Include/arm_math.h ****   const arm_biquad_casd_df1_inst_q31 * S,
1470:Drivers/CMSIS/DSP/Include/arm_math.h ****   const q31_t * pSrc,
1471:Drivers/CMSIS/DSP/Include/arm_math.h ****         q31_t * pDst,
1472:Drivers/CMSIS/DSP/Include/arm_math.h ****         uint32_t blockSize);
1473:Drivers/CMSIS/DSP/Include/arm_math.h **** 
1474:Drivers/CMSIS/DSP/Include/arm_math.h ****   /**
1475:Drivers/CMSIS/DSP/Include/arm_math.h ****    * @brief  Initialization function for the Q31 Biquad cascade filter.
1476:Drivers/CMSIS/DSP/Include/arm_math.h ****    * @param[in,out] S          points to an instance of the Q31 Biquad cascade structure.
1477:Drivers/CMSIS/DSP/Include/arm_math.h ****    * @param[in]     numStages  number of 2nd order stages in the filter.
1478:Drivers/CMSIS/DSP/Include/arm_math.h ****    * @param[in]     pCoeffs    points to the filter coefficients.
ARM GAS  C:\Users\Joknem\AppData\Local\Temp\ccvCWXA9.s 			page 31


1479:Drivers/CMSIS/DSP/Include/arm_math.h ****    * @param[in]     pState     points to the state buffer.
1480:Drivers/CMSIS/DSP/Include/arm_math.h ****    * @param[in]     postShift  Shift to be applied to the output. Varies according to the coefficie
1481:Drivers/CMSIS/DSP/Include/arm_math.h ****    */
1482:Drivers/CMSIS/DSP/Include/arm_math.h ****   void arm_biquad_cascade_df1_init_q31(
1483:Drivers/CMSIS/DSP/Include/arm_math.h ****         arm_biquad_casd_df1_inst_q31 * S,
1484:Drivers/CMSIS/DSP/Include/arm_math.h ****         uint8_t numStages,
1485:Drivers/CMSIS/DSP/Include/arm_math.h ****   const q31_t * pCoeffs,
1486:Drivers/CMSIS/DSP/Include/arm_math.h ****         q31_t * pState,
1487:Drivers/CMSIS/DSP/Include/arm_math.h ****         int8_t postShift);
1488:Drivers/CMSIS/DSP/Include/arm_math.h **** 
1489:Drivers/CMSIS/DSP/Include/arm_math.h ****   /**
1490:Drivers/CMSIS/DSP/Include/arm_math.h ****    * @brief Processing function for the floating-point Biquad cascade filter.
1491:Drivers/CMSIS/DSP/Include/arm_math.h ****    * @param[in]  S          points to an instance of the floating-point Biquad cascade structure.
1492:Drivers/CMSIS/DSP/Include/arm_math.h ****    * @param[in]  pSrc       points to the block of input data.
1493:Drivers/CMSIS/DSP/Include/arm_math.h ****    * @param[out] pDst       points to the block of output data.
1494:Drivers/CMSIS/DSP/Include/arm_math.h ****    * @param[in]  blockSize  number of samples to process.
1495:Drivers/CMSIS/DSP/Include/arm_math.h ****    */
1496:Drivers/CMSIS/DSP/Include/arm_math.h ****   void arm_biquad_cascade_df1_f32(
1497:Drivers/CMSIS/DSP/Include/arm_math.h ****   const arm_biquad_casd_df1_inst_f32 * S,
1498:Drivers/CMSIS/DSP/Include/arm_math.h ****   const float32_t * pSrc,
1499:Drivers/CMSIS/DSP/Include/arm_math.h ****         float32_t * pDst,
1500:Drivers/CMSIS/DSP/Include/arm_math.h ****         uint32_t blockSize);
1501:Drivers/CMSIS/DSP/Include/arm_math.h **** 
1502:Drivers/CMSIS/DSP/Include/arm_math.h ****   /**
1503:Drivers/CMSIS/DSP/Include/arm_math.h ****    * @brief  Initialization function for the floating-point Biquad cascade filter.
1504:Drivers/CMSIS/DSP/Include/arm_math.h ****    * @param[in,out] S          points to an instance of the floating-point Biquad cascade structure
1505:Drivers/CMSIS/DSP/Include/arm_math.h ****    * @param[in]     numStages  number of 2nd order stages in the filter.
1506:Drivers/CMSIS/DSP/Include/arm_math.h ****    * @param[in]     pCoeffs    points to the filter coefficients.
1507:Drivers/CMSIS/DSP/Include/arm_math.h ****    * @param[in]     pState     points to the state buffer.
1508:Drivers/CMSIS/DSP/Include/arm_math.h ****    */
1509:Drivers/CMSIS/DSP/Include/arm_math.h ****   void arm_biquad_cascade_df1_init_f32(
1510:Drivers/CMSIS/DSP/Include/arm_math.h ****         arm_biquad_casd_df1_inst_f32 * S,
1511:Drivers/CMSIS/DSP/Include/arm_math.h ****         uint8_t numStages,
1512:Drivers/CMSIS/DSP/Include/arm_math.h ****   const float32_t * pCoeffs,
1513:Drivers/CMSIS/DSP/Include/arm_math.h ****         float32_t * pState);
1514:Drivers/CMSIS/DSP/Include/arm_math.h **** 
1515:Drivers/CMSIS/DSP/Include/arm_math.h ****   /**
1516:Drivers/CMSIS/DSP/Include/arm_math.h ****    * @brief Instance structure for the floating-point matrix structure.
1517:Drivers/CMSIS/DSP/Include/arm_math.h ****    */
1518:Drivers/CMSIS/DSP/Include/arm_math.h ****   typedef struct
1519:Drivers/CMSIS/DSP/Include/arm_math.h ****   {
1520:Drivers/CMSIS/DSP/Include/arm_math.h ****     uint16_t numRows;     /**< number of rows of the matrix.     */
1521:Drivers/CMSIS/DSP/Include/arm_math.h ****     uint16_t numCols;     /**< number of columns of the matrix.  */
1522:Drivers/CMSIS/DSP/Include/arm_math.h ****     float32_t *pData;     /**< points to the data of the matrix. */
1523:Drivers/CMSIS/DSP/Include/arm_math.h ****   } arm_matrix_instance_f32;
1524:Drivers/CMSIS/DSP/Include/arm_math.h **** 
1525:Drivers/CMSIS/DSP/Include/arm_math.h **** 
1526:Drivers/CMSIS/DSP/Include/arm_math.h ****   /**
1527:Drivers/CMSIS/DSP/Include/arm_math.h ****    * @brief Instance structure for the floating-point matrix structure.
1528:Drivers/CMSIS/DSP/Include/arm_math.h ****    */
1529:Drivers/CMSIS/DSP/Include/arm_math.h ****   typedef struct
1530:Drivers/CMSIS/DSP/Include/arm_math.h ****   {
1531:Drivers/CMSIS/DSP/Include/arm_math.h ****     uint16_t numRows;     /**< number of rows of the matrix.     */
1532:Drivers/CMSIS/DSP/Include/arm_math.h ****     uint16_t numCols;     /**< number of columns of the matrix.  */
1533:Drivers/CMSIS/DSP/Include/arm_math.h ****     float64_t *pData;     /**< points to the data of the matrix. */
1534:Drivers/CMSIS/DSP/Include/arm_math.h ****   } arm_matrix_instance_f64;
1535:Drivers/CMSIS/DSP/Include/arm_math.h **** 
ARM GAS  C:\Users\Joknem\AppData\Local\Temp\ccvCWXA9.s 			page 32


1536:Drivers/CMSIS/DSP/Include/arm_math.h ****   /**
1537:Drivers/CMSIS/DSP/Include/arm_math.h ****    * @brief Instance structure for the Q15 matrix structure.
1538:Drivers/CMSIS/DSP/Include/arm_math.h ****    */
1539:Drivers/CMSIS/DSP/Include/arm_math.h ****   typedef struct
1540:Drivers/CMSIS/DSP/Include/arm_math.h ****   {
1541:Drivers/CMSIS/DSP/Include/arm_math.h ****     uint16_t numRows;     /**< number of rows of the matrix.     */
1542:Drivers/CMSIS/DSP/Include/arm_math.h ****     uint16_t numCols;     /**< number of columns of the matrix.  */
1543:Drivers/CMSIS/DSP/Include/arm_math.h ****     q15_t *pData;         /**< points to the data of the matrix. */
1544:Drivers/CMSIS/DSP/Include/arm_math.h ****   } arm_matrix_instance_q15;
1545:Drivers/CMSIS/DSP/Include/arm_math.h **** 
1546:Drivers/CMSIS/DSP/Include/arm_math.h ****   /**
1547:Drivers/CMSIS/DSP/Include/arm_math.h ****    * @brief Instance structure for the Q31 matrix structure.
1548:Drivers/CMSIS/DSP/Include/arm_math.h ****    */
1549:Drivers/CMSIS/DSP/Include/arm_math.h ****   typedef struct
1550:Drivers/CMSIS/DSP/Include/arm_math.h ****   {
1551:Drivers/CMSIS/DSP/Include/arm_math.h ****     uint16_t numRows;     /**< number of rows of the matrix.     */
1552:Drivers/CMSIS/DSP/Include/arm_math.h ****     uint16_t numCols;     /**< number of columns of the matrix.  */
1553:Drivers/CMSIS/DSP/Include/arm_math.h ****     q31_t *pData;         /**< points to the data of the matrix. */
1554:Drivers/CMSIS/DSP/Include/arm_math.h ****   } arm_matrix_instance_q31;
1555:Drivers/CMSIS/DSP/Include/arm_math.h **** 
1556:Drivers/CMSIS/DSP/Include/arm_math.h ****   /**
1557:Drivers/CMSIS/DSP/Include/arm_math.h ****    * @brief Floating-point matrix addition.
1558:Drivers/CMSIS/DSP/Include/arm_math.h ****    * @param[in]  pSrcA  points to the first input matrix structure
1559:Drivers/CMSIS/DSP/Include/arm_math.h ****    * @param[in]  pSrcB  points to the second input matrix structure
1560:Drivers/CMSIS/DSP/Include/arm_math.h ****    * @param[out] pDst   points to output matrix structure
1561:Drivers/CMSIS/DSP/Include/arm_math.h ****    * @return     The function returns either
1562:Drivers/CMSIS/DSP/Include/arm_math.h ****    * <code>ARM_MATH_SIZE_MISMATCH</code> or <code>ARM_MATH_SUCCESS</code> based on the outcome of s
1563:Drivers/CMSIS/DSP/Include/arm_math.h ****    */
1564:Drivers/CMSIS/DSP/Include/arm_math.h **** arm_status arm_mat_add_f32(
1565:Drivers/CMSIS/DSP/Include/arm_math.h ****   const arm_matrix_instance_f32 * pSrcA,
1566:Drivers/CMSIS/DSP/Include/arm_math.h ****   const arm_matrix_instance_f32 * pSrcB,
1567:Drivers/CMSIS/DSP/Include/arm_math.h ****         arm_matrix_instance_f32 * pDst);
1568:Drivers/CMSIS/DSP/Include/arm_math.h **** 
1569:Drivers/CMSIS/DSP/Include/arm_math.h ****   /**
1570:Drivers/CMSIS/DSP/Include/arm_math.h ****    * @brief Q15 matrix addition.
1571:Drivers/CMSIS/DSP/Include/arm_math.h ****    * @param[in]   pSrcA  points to the first input matrix structure
1572:Drivers/CMSIS/DSP/Include/arm_math.h ****    * @param[in]   pSrcB  points to the second input matrix structure
1573:Drivers/CMSIS/DSP/Include/arm_math.h ****    * @param[out]  pDst   points to output matrix structure
1574:Drivers/CMSIS/DSP/Include/arm_math.h ****    * @return     The function returns either
1575:Drivers/CMSIS/DSP/Include/arm_math.h ****    * <code>ARM_MATH_SIZE_MISMATCH</code> or <code>ARM_MATH_SUCCESS</code> based on the outcome of s
1576:Drivers/CMSIS/DSP/Include/arm_math.h ****    */
1577:Drivers/CMSIS/DSP/Include/arm_math.h **** arm_status arm_mat_add_q15(
1578:Drivers/CMSIS/DSP/Include/arm_math.h ****   const arm_matrix_instance_q15 * pSrcA,
1579:Drivers/CMSIS/DSP/Include/arm_math.h ****   const arm_matrix_instance_q15 * pSrcB,
1580:Drivers/CMSIS/DSP/Include/arm_math.h ****         arm_matrix_instance_q15 * pDst);
1581:Drivers/CMSIS/DSP/Include/arm_math.h **** 
1582:Drivers/CMSIS/DSP/Include/arm_math.h ****   /**
1583:Drivers/CMSIS/DSP/Include/arm_math.h ****    * @brief Q31 matrix addition.
1584:Drivers/CMSIS/DSP/Include/arm_math.h ****    * @param[in]  pSrcA  points to the first input matrix structure
1585:Drivers/CMSIS/DSP/Include/arm_math.h ****    * @param[in]  pSrcB  points to the second input matrix structure
1586:Drivers/CMSIS/DSP/Include/arm_math.h ****    * @param[out] pDst   points to output matrix structure
1587:Drivers/CMSIS/DSP/Include/arm_math.h ****    * @return     The function returns either
1588:Drivers/CMSIS/DSP/Include/arm_math.h ****    * <code>ARM_MATH_SIZE_MISMATCH</code> or <code>ARM_MATH_SUCCESS</code> based on the outcome of s
1589:Drivers/CMSIS/DSP/Include/arm_math.h ****    */
1590:Drivers/CMSIS/DSP/Include/arm_math.h **** arm_status arm_mat_add_q31(
1591:Drivers/CMSIS/DSP/Include/arm_math.h ****   const arm_matrix_instance_q31 * pSrcA,
1592:Drivers/CMSIS/DSP/Include/arm_math.h ****   const arm_matrix_instance_q31 * pSrcB,
ARM GAS  C:\Users\Joknem\AppData\Local\Temp\ccvCWXA9.s 			page 33


1593:Drivers/CMSIS/DSP/Include/arm_math.h ****         arm_matrix_instance_q31 * pDst);
1594:Drivers/CMSIS/DSP/Include/arm_math.h **** 
1595:Drivers/CMSIS/DSP/Include/arm_math.h ****   /**
1596:Drivers/CMSIS/DSP/Include/arm_math.h ****    * @brief Floating-point, complex, matrix multiplication.
1597:Drivers/CMSIS/DSP/Include/arm_math.h ****    * @param[in]  pSrcA  points to the first input matrix structure
1598:Drivers/CMSIS/DSP/Include/arm_math.h ****    * @param[in]  pSrcB  points to the second input matrix structure
1599:Drivers/CMSIS/DSP/Include/arm_math.h ****    * @param[out] pDst   points to output matrix structure
1600:Drivers/CMSIS/DSP/Include/arm_math.h ****    * @return     The function returns either
1601:Drivers/CMSIS/DSP/Include/arm_math.h ****    * <code>ARM_MATH_SIZE_MISMATCH</code> or <code>ARM_MATH_SUCCESS</code> based on the outcome of s
1602:Drivers/CMSIS/DSP/Include/arm_math.h ****    */
1603:Drivers/CMSIS/DSP/Include/arm_math.h **** arm_status arm_mat_cmplx_mult_f32(
1604:Drivers/CMSIS/DSP/Include/arm_math.h ****   const arm_matrix_instance_f32 * pSrcA,
1605:Drivers/CMSIS/DSP/Include/arm_math.h ****   const arm_matrix_instance_f32 * pSrcB,
1606:Drivers/CMSIS/DSP/Include/arm_math.h ****         arm_matrix_instance_f32 * pDst);
1607:Drivers/CMSIS/DSP/Include/arm_math.h **** 
1608:Drivers/CMSIS/DSP/Include/arm_math.h ****   /**
1609:Drivers/CMSIS/DSP/Include/arm_math.h ****    * @brief Q15, complex,  matrix multiplication.
1610:Drivers/CMSIS/DSP/Include/arm_math.h ****    * @param[in]  pSrcA  points to the first input matrix structure
1611:Drivers/CMSIS/DSP/Include/arm_math.h ****    * @param[in]  pSrcB  points to the second input matrix structure
1612:Drivers/CMSIS/DSP/Include/arm_math.h ****    * @param[out] pDst   points to output matrix structure
1613:Drivers/CMSIS/DSP/Include/arm_math.h ****    * @return     The function returns either
1614:Drivers/CMSIS/DSP/Include/arm_math.h ****    * <code>ARM_MATH_SIZE_MISMATCH</code> or <code>ARM_MATH_SUCCESS</code> based on the outcome of s
1615:Drivers/CMSIS/DSP/Include/arm_math.h ****    */
1616:Drivers/CMSIS/DSP/Include/arm_math.h **** arm_status arm_mat_cmplx_mult_q15(
1617:Drivers/CMSIS/DSP/Include/arm_math.h ****   const arm_matrix_instance_q15 * pSrcA,
1618:Drivers/CMSIS/DSP/Include/arm_math.h ****   const arm_matrix_instance_q15 * pSrcB,
1619:Drivers/CMSIS/DSP/Include/arm_math.h ****         arm_matrix_instance_q15 * pDst,
1620:Drivers/CMSIS/DSP/Include/arm_math.h ****         q15_t * pScratch);
1621:Drivers/CMSIS/DSP/Include/arm_math.h **** 
1622:Drivers/CMSIS/DSP/Include/arm_math.h ****   /**
1623:Drivers/CMSIS/DSP/Include/arm_math.h ****    * @brief Q31, complex, matrix multiplication.
1624:Drivers/CMSIS/DSP/Include/arm_math.h ****    * @param[in]  pSrcA  points to the first input matrix structure
1625:Drivers/CMSIS/DSP/Include/arm_math.h ****    * @param[in]  pSrcB  points to the second input matrix structure
1626:Drivers/CMSIS/DSP/Include/arm_math.h ****    * @param[out] pDst   points to output matrix structure
1627:Drivers/CMSIS/DSP/Include/arm_math.h ****    * @return     The function returns either
1628:Drivers/CMSIS/DSP/Include/arm_math.h ****    * <code>ARM_MATH_SIZE_MISMATCH</code> or <code>ARM_MATH_SUCCESS</code> based on the outcome of s
1629:Drivers/CMSIS/DSP/Include/arm_math.h ****    */
1630:Drivers/CMSIS/DSP/Include/arm_math.h **** arm_status arm_mat_cmplx_mult_q31(
1631:Drivers/CMSIS/DSP/Include/arm_math.h ****   const arm_matrix_instance_q31 * pSrcA,
1632:Drivers/CMSIS/DSP/Include/arm_math.h ****   const arm_matrix_instance_q31 * pSrcB,
1633:Drivers/CMSIS/DSP/Include/arm_math.h ****         arm_matrix_instance_q31 * pDst);
1634:Drivers/CMSIS/DSP/Include/arm_math.h **** 
1635:Drivers/CMSIS/DSP/Include/arm_math.h ****   /**
1636:Drivers/CMSIS/DSP/Include/arm_math.h ****    * @brief Floating-point matrix transpose.
1637:Drivers/CMSIS/DSP/Include/arm_math.h ****    * @param[in]  pSrc  points to the input matrix
1638:Drivers/CMSIS/DSP/Include/arm_math.h ****    * @param[out] pDst  points to the output matrix
1639:Drivers/CMSIS/DSP/Include/arm_math.h ****    * @return    The function returns either  <code>ARM_MATH_SIZE_MISMATCH</code>
1640:Drivers/CMSIS/DSP/Include/arm_math.h ****    * or <code>ARM_MATH_SUCCESS</code> based on the outcome of size checking.
1641:Drivers/CMSIS/DSP/Include/arm_math.h ****    */
1642:Drivers/CMSIS/DSP/Include/arm_math.h **** arm_status arm_mat_trans_f32(
1643:Drivers/CMSIS/DSP/Include/arm_math.h ****   const arm_matrix_instance_f32 * pSrc,
1644:Drivers/CMSIS/DSP/Include/arm_math.h ****         arm_matrix_instance_f32 * pDst);
1645:Drivers/CMSIS/DSP/Include/arm_math.h **** 
1646:Drivers/CMSIS/DSP/Include/arm_math.h ****   /**
1647:Drivers/CMSIS/DSP/Include/arm_math.h ****    * @brief Q15 matrix transpose.
1648:Drivers/CMSIS/DSP/Include/arm_math.h ****    * @param[in]  pSrc  points to the input matrix
1649:Drivers/CMSIS/DSP/Include/arm_math.h ****    * @param[out] pDst  points to the output matrix
ARM GAS  C:\Users\Joknem\AppData\Local\Temp\ccvCWXA9.s 			page 34


1650:Drivers/CMSIS/DSP/Include/arm_math.h ****    * @return    The function returns either  <code>ARM_MATH_SIZE_MISMATCH</code>
1651:Drivers/CMSIS/DSP/Include/arm_math.h ****    * or <code>ARM_MATH_SUCCESS</code> based on the outcome of size checking.
1652:Drivers/CMSIS/DSP/Include/arm_math.h ****    */
1653:Drivers/CMSIS/DSP/Include/arm_math.h **** arm_status arm_mat_trans_q15(
1654:Drivers/CMSIS/DSP/Include/arm_math.h ****   const arm_matrix_instance_q15 * pSrc,
1655:Drivers/CMSIS/DSP/Include/arm_math.h ****         arm_matrix_instance_q15 * pDst);
1656:Drivers/CMSIS/DSP/Include/arm_math.h **** 
1657:Drivers/CMSIS/DSP/Include/arm_math.h ****   /**
1658:Drivers/CMSIS/DSP/Include/arm_math.h ****    * @brief Q31 matrix transpose.
1659:Drivers/CMSIS/DSP/Include/arm_math.h ****    * @param[in]  pSrc  points to the input matrix
1660:Drivers/CMSIS/DSP/Include/arm_math.h ****    * @param[out] pDst  points to the output matrix
1661:Drivers/CMSIS/DSP/Include/arm_math.h ****    * @return    The function returns either  <code>ARM_MATH_SIZE_MISMATCH</code>
1662:Drivers/CMSIS/DSP/Include/arm_math.h ****    * or <code>ARM_MATH_SUCCESS</code> based on the outcome of size checking.
1663:Drivers/CMSIS/DSP/Include/arm_math.h ****    */
1664:Drivers/CMSIS/DSP/Include/arm_math.h **** arm_status arm_mat_trans_q31(
1665:Drivers/CMSIS/DSP/Include/arm_math.h ****   const arm_matrix_instance_q31 * pSrc,
1666:Drivers/CMSIS/DSP/Include/arm_math.h ****         arm_matrix_instance_q31 * pDst);
1667:Drivers/CMSIS/DSP/Include/arm_math.h **** 
1668:Drivers/CMSIS/DSP/Include/arm_math.h ****   /**
1669:Drivers/CMSIS/DSP/Include/arm_math.h ****    * @brief Floating-point matrix multiplication
1670:Drivers/CMSIS/DSP/Include/arm_math.h ****    * @param[in]  pSrcA  points to the first input matrix structure
1671:Drivers/CMSIS/DSP/Include/arm_math.h ****    * @param[in]  pSrcB  points to the second input matrix structure
1672:Drivers/CMSIS/DSP/Include/arm_math.h ****    * @param[out] pDst   points to output matrix structure
1673:Drivers/CMSIS/DSP/Include/arm_math.h ****    * @return     The function returns either
1674:Drivers/CMSIS/DSP/Include/arm_math.h ****    * <code>ARM_MATH_SIZE_MISMATCH</code> or <code>ARM_MATH_SUCCESS</code> based on the outcome of s
1675:Drivers/CMSIS/DSP/Include/arm_math.h ****    */
1676:Drivers/CMSIS/DSP/Include/arm_math.h **** arm_status arm_mat_mult_f32(
1677:Drivers/CMSIS/DSP/Include/arm_math.h ****   const arm_matrix_instance_f32 * pSrcA,
1678:Drivers/CMSIS/DSP/Include/arm_math.h ****   const arm_matrix_instance_f32 * pSrcB,
1679:Drivers/CMSIS/DSP/Include/arm_math.h ****         arm_matrix_instance_f32 * pDst);
1680:Drivers/CMSIS/DSP/Include/arm_math.h **** 
1681:Drivers/CMSIS/DSP/Include/arm_math.h ****   /**
1682:Drivers/CMSIS/DSP/Include/arm_math.h ****    * @brief Q15 matrix multiplication
1683:Drivers/CMSIS/DSP/Include/arm_math.h ****    * @param[in]  pSrcA   points to the first input matrix structure
1684:Drivers/CMSIS/DSP/Include/arm_math.h ****    * @param[in]  pSrcB   points to the second input matrix structure
1685:Drivers/CMSIS/DSP/Include/arm_math.h ****    * @param[out] pDst    points to output matrix structure
1686:Drivers/CMSIS/DSP/Include/arm_math.h ****    * @param[in]  pState  points to the array for storing intermediate results
1687:Drivers/CMSIS/DSP/Include/arm_math.h ****    * @return     The function returns either
1688:Drivers/CMSIS/DSP/Include/arm_math.h ****    * <code>ARM_MATH_SIZE_MISMATCH</code> or <code>ARM_MATH_SUCCESS</code> based on the outcome of s
1689:Drivers/CMSIS/DSP/Include/arm_math.h ****    */
1690:Drivers/CMSIS/DSP/Include/arm_math.h **** arm_status arm_mat_mult_q15(
1691:Drivers/CMSIS/DSP/Include/arm_math.h ****   const arm_matrix_instance_q15 * pSrcA,
1692:Drivers/CMSIS/DSP/Include/arm_math.h ****   const arm_matrix_instance_q15 * pSrcB,
1693:Drivers/CMSIS/DSP/Include/arm_math.h ****         arm_matrix_instance_q15 * pDst,
1694:Drivers/CMSIS/DSP/Include/arm_math.h ****         q15_t * pState);
1695:Drivers/CMSIS/DSP/Include/arm_math.h **** 
1696:Drivers/CMSIS/DSP/Include/arm_math.h ****   /**
1697:Drivers/CMSIS/DSP/Include/arm_math.h ****    * @brief Q15 matrix multiplication (fast variant) for Cortex-M3 and Cortex-M4
1698:Drivers/CMSIS/DSP/Include/arm_math.h ****    * @param[in]  pSrcA   points to the first input matrix structure
1699:Drivers/CMSIS/DSP/Include/arm_math.h ****    * @param[in]  pSrcB   points to the second input matrix structure
1700:Drivers/CMSIS/DSP/Include/arm_math.h ****    * @param[out] pDst    points to output matrix structure
1701:Drivers/CMSIS/DSP/Include/arm_math.h ****    * @param[in]  pState  points to the array for storing intermediate results
1702:Drivers/CMSIS/DSP/Include/arm_math.h ****    * @return     The function returns either
1703:Drivers/CMSIS/DSP/Include/arm_math.h ****    * <code>ARM_MATH_SIZE_MISMATCH</code> or <code>ARM_MATH_SUCCESS</code> based on the outcome of s
1704:Drivers/CMSIS/DSP/Include/arm_math.h ****    */
1705:Drivers/CMSIS/DSP/Include/arm_math.h **** arm_status arm_mat_mult_fast_q15(
1706:Drivers/CMSIS/DSP/Include/arm_math.h ****   const arm_matrix_instance_q15 * pSrcA,
ARM GAS  C:\Users\Joknem\AppData\Local\Temp\ccvCWXA9.s 			page 35


1707:Drivers/CMSIS/DSP/Include/arm_math.h ****   const arm_matrix_instance_q15 * pSrcB,
1708:Drivers/CMSIS/DSP/Include/arm_math.h ****         arm_matrix_instance_q15 * pDst,
1709:Drivers/CMSIS/DSP/Include/arm_math.h ****         q15_t * pState);
1710:Drivers/CMSIS/DSP/Include/arm_math.h **** 
1711:Drivers/CMSIS/DSP/Include/arm_math.h ****   /**
1712:Drivers/CMSIS/DSP/Include/arm_math.h ****    * @brief Q31 matrix multiplication
1713:Drivers/CMSIS/DSP/Include/arm_math.h ****    * @param[in]  pSrcA  points to the first input matrix structure
1714:Drivers/CMSIS/DSP/Include/arm_math.h ****    * @param[in]  pSrcB  points to the second input matrix structure
1715:Drivers/CMSIS/DSP/Include/arm_math.h ****    * @param[out] pDst   points to output matrix structure
1716:Drivers/CMSIS/DSP/Include/arm_math.h ****    * @return     The function returns either
1717:Drivers/CMSIS/DSP/Include/arm_math.h ****    * <code>ARM_MATH_SIZE_MISMATCH</code> or <code>ARM_MATH_SUCCESS</code> based on the outcome of s
1718:Drivers/CMSIS/DSP/Include/arm_math.h ****    */
1719:Drivers/CMSIS/DSP/Include/arm_math.h **** arm_status arm_mat_mult_q31(
1720:Drivers/CMSIS/DSP/Include/arm_math.h ****   const arm_matrix_instance_q31 * pSrcA,
1721:Drivers/CMSIS/DSP/Include/arm_math.h ****   const arm_matrix_instance_q31 * pSrcB,
1722:Drivers/CMSIS/DSP/Include/arm_math.h ****         arm_matrix_instance_q31 * pDst);
1723:Drivers/CMSIS/DSP/Include/arm_math.h **** 
1724:Drivers/CMSIS/DSP/Include/arm_math.h ****   /**
1725:Drivers/CMSIS/DSP/Include/arm_math.h ****    * @brief Q31 matrix multiplication (fast variant) for Cortex-M3 and Cortex-M4
1726:Drivers/CMSIS/DSP/Include/arm_math.h ****    * @param[in]  pSrcA  points to the first input matrix structure
1727:Drivers/CMSIS/DSP/Include/arm_math.h ****    * @param[in]  pSrcB  points to the second input matrix structure
1728:Drivers/CMSIS/DSP/Include/arm_math.h ****    * @param[out] pDst   points to output matrix structure
1729:Drivers/CMSIS/DSP/Include/arm_math.h ****    * @return     The function returns either
1730:Drivers/CMSIS/DSP/Include/arm_math.h ****    * <code>ARM_MATH_SIZE_MISMATCH</code> or <code>ARM_MATH_SUCCESS</code> based on the outcome of s
1731:Drivers/CMSIS/DSP/Include/arm_math.h ****    */
1732:Drivers/CMSIS/DSP/Include/arm_math.h **** arm_status arm_mat_mult_fast_q31(
1733:Drivers/CMSIS/DSP/Include/arm_math.h ****   const arm_matrix_instance_q31 * pSrcA,
1734:Drivers/CMSIS/DSP/Include/arm_math.h ****   const arm_matrix_instance_q31 * pSrcB,
1735:Drivers/CMSIS/DSP/Include/arm_math.h ****         arm_matrix_instance_q31 * pDst);
1736:Drivers/CMSIS/DSP/Include/arm_math.h **** 
1737:Drivers/CMSIS/DSP/Include/arm_math.h ****   /**
1738:Drivers/CMSIS/DSP/Include/arm_math.h ****    * @brief Floating-point matrix subtraction
1739:Drivers/CMSIS/DSP/Include/arm_math.h ****    * @param[in]  pSrcA  points to the first input matrix structure
1740:Drivers/CMSIS/DSP/Include/arm_math.h ****    * @param[in]  pSrcB  points to the second input matrix structure
1741:Drivers/CMSIS/DSP/Include/arm_math.h ****    * @param[out] pDst   points to output matrix structure
1742:Drivers/CMSIS/DSP/Include/arm_math.h ****    * @return     The function returns either
1743:Drivers/CMSIS/DSP/Include/arm_math.h ****    * <code>ARM_MATH_SIZE_MISMATCH</code> or <code>ARM_MATH_SUCCESS</code> based on the outcome of s
1744:Drivers/CMSIS/DSP/Include/arm_math.h ****    */
1745:Drivers/CMSIS/DSP/Include/arm_math.h **** arm_status arm_mat_sub_f32(
1746:Drivers/CMSIS/DSP/Include/arm_math.h ****   const arm_matrix_instance_f32 * pSrcA,
1747:Drivers/CMSIS/DSP/Include/arm_math.h ****   const arm_matrix_instance_f32 * pSrcB,
1748:Drivers/CMSIS/DSP/Include/arm_math.h ****         arm_matrix_instance_f32 * pDst);
1749:Drivers/CMSIS/DSP/Include/arm_math.h **** 
1750:Drivers/CMSIS/DSP/Include/arm_math.h ****   /**
1751:Drivers/CMSIS/DSP/Include/arm_math.h ****    * @brief Q15 matrix subtraction
1752:Drivers/CMSIS/DSP/Include/arm_math.h ****    * @param[in]  pSrcA  points to the first input matrix structure
1753:Drivers/CMSIS/DSP/Include/arm_math.h ****    * @param[in]  pSrcB  points to the second input matrix structure
1754:Drivers/CMSIS/DSP/Include/arm_math.h ****    * @param[out] pDst   points to output matrix structure
1755:Drivers/CMSIS/DSP/Include/arm_math.h ****    * @return     The function returns either
1756:Drivers/CMSIS/DSP/Include/arm_math.h ****    * <code>ARM_MATH_SIZE_MISMATCH</code> or <code>ARM_MATH_SUCCESS</code> based on the outcome of s
1757:Drivers/CMSIS/DSP/Include/arm_math.h ****    */
1758:Drivers/CMSIS/DSP/Include/arm_math.h **** arm_status arm_mat_sub_q15(
1759:Drivers/CMSIS/DSP/Include/arm_math.h ****   const arm_matrix_instance_q15 * pSrcA,
1760:Drivers/CMSIS/DSP/Include/arm_math.h ****   const arm_matrix_instance_q15 * pSrcB,
1761:Drivers/CMSIS/DSP/Include/arm_math.h ****         arm_matrix_instance_q15 * pDst);
1762:Drivers/CMSIS/DSP/Include/arm_math.h **** 
1763:Drivers/CMSIS/DSP/Include/arm_math.h ****   /**
ARM GAS  C:\Users\Joknem\AppData\Local\Temp\ccvCWXA9.s 			page 36


1764:Drivers/CMSIS/DSP/Include/arm_math.h ****    * @brief Q31 matrix subtraction
1765:Drivers/CMSIS/DSP/Include/arm_math.h ****    * @param[in]  pSrcA  points to the first input matrix structure
1766:Drivers/CMSIS/DSP/Include/arm_math.h ****    * @param[in]  pSrcB  points to the second input matrix structure
1767:Drivers/CMSIS/DSP/Include/arm_math.h ****    * @param[out] pDst   points to output matrix structure
1768:Drivers/CMSIS/DSP/Include/arm_math.h ****    * @return     The function returns either
1769:Drivers/CMSIS/DSP/Include/arm_math.h ****    * <code>ARM_MATH_SIZE_MISMATCH</code> or <code>ARM_MATH_SUCCESS</code> based on the outcome of s
1770:Drivers/CMSIS/DSP/Include/arm_math.h ****    */
1771:Drivers/CMSIS/DSP/Include/arm_math.h **** arm_status arm_mat_sub_q31(
1772:Drivers/CMSIS/DSP/Include/arm_math.h ****   const arm_matrix_instance_q31 * pSrcA,
1773:Drivers/CMSIS/DSP/Include/arm_math.h ****   const arm_matrix_instance_q31 * pSrcB,
1774:Drivers/CMSIS/DSP/Include/arm_math.h ****         arm_matrix_instance_q31 * pDst);
1775:Drivers/CMSIS/DSP/Include/arm_math.h **** 
1776:Drivers/CMSIS/DSP/Include/arm_math.h ****   /**
1777:Drivers/CMSIS/DSP/Include/arm_math.h ****    * @brief Floating-point matrix scaling.
1778:Drivers/CMSIS/DSP/Include/arm_math.h ****    * @param[in]  pSrc   points to the input matrix
1779:Drivers/CMSIS/DSP/Include/arm_math.h ****    * @param[in]  scale  scale factor
1780:Drivers/CMSIS/DSP/Include/arm_math.h ****    * @param[out] pDst   points to the output matrix
1781:Drivers/CMSIS/DSP/Include/arm_math.h ****    * @return     The function returns either
1782:Drivers/CMSIS/DSP/Include/arm_math.h ****    * <code>ARM_MATH_SIZE_MISMATCH</code> or <code>ARM_MATH_SUCCESS</code> based on the outcome of s
1783:Drivers/CMSIS/DSP/Include/arm_math.h ****    */
1784:Drivers/CMSIS/DSP/Include/arm_math.h **** arm_status arm_mat_scale_f32(
1785:Drivers/CMSIS/DSP/Include/arm_math.h ****   const arm_matrix_instance_f32 * pSrc,
1786:Drivers/CMSIS/DSP/Include/arm_math.h ****         float32_t scale,
1787:Drivers/CMSIS/DSP/Include/arm_math.h ****         arm_matrix_instance_f32 * pDst);
1788:Drivers/CMSIS/DSP/Include/arm_math.h **** 
1789:Drivers/CMSIS/DSP/Include/arm_math.h ****   /**
1790:Drivers/CMSIS/DSP/Include/arm_math.h ****    * @brief Q15 matrix scaling.
1791:Drivers/CMSIS/DSP/Include/arm_math.h ****    * @param[in]  pSrc        points to input matrix
1792:Drivers/CMSIS/DSP/Include/arm_math.h ****    * @param[in]  scaleFract  fractional portion of the scale factor
1793:Drivers/CMSIS/DSP/Include/arm_math.h ****    * @param[in]  shift       number of bits to shift the result by
1794:Drivers/CMSIS/DSP/Include/arm_math.h ****    * @param[out] pDst        points to output matrix
1795:Drivers/CMSIS/DSP/Include/arm_math.h ****    * @return     The function returns either
1796:Drivers/CMSIS/DSP/Include/arm_math.h ****    * <code>ARM_MATH_SIZE_MISMATCH</code> or <code>ARM_MATH_SUCCESS</code> based on the outcome of s
1797:Drivers/CMSIS/DSP/Include/arm_math.h ****    */
1798:Drivers/CMSIS/DSP/Include/arm_math.h **** arm_status arm_mat_scale_q15(
1799:Drivers/CMSIS/DSP/Include/arm_math.h ****   const arm_matrix_instance_q15 * pSrc,
1800:Drivers/CMSIS/DSP/Include/arm_math.h ****         q15_t scaleFract,
1801:Drivers/CMSIS/DSP/Include/arm_math.h ****         int32_t shift,
1802:Drivers/CMSIS/DSP/Include/arm_math.h ****         arm_matrix_instance_q15 * pDst);
1803:Drivers/CMSIS/DSP/Include/arm_math.h **** 
1804:Drivers/CMSIS/DSP/Include/arm_math.h ****   /**
1805:Drivers/CMSIS/DSP/Include/arm_math.h ****    * @brief Q31 matrix scaling.
1806:Drivers/CMSIS/DSP/Include/arm_math.h ****    * @param[in]  pSrc        points to input matrix
1807:Drivers/CMSIS/DSP/Include/arm_math.h ****    * @param[in]  scaleFract  fractional portion of the scale factor
1808:Drivers/CMSIS/DSP/Include/arm_math.h ****    * @param[in]  shift       number of bits to shift the result by
1809:Drivers/CMSIS/DSP/Include/arm_math.h ****    * @param[out] pDst        points to output matrix structure
1810:Drivers/CMSIS/DSP/Include/arm_math.h ****    * @return     The function returns either
1811:Drivers/CMSIS/DSP/Include/arm_math.h ****    * <code>ARM_MATH_SIZE_MISMATCH</code> or <code>ARM_MATH_SUCCESS</code> based on the outcome of s
1812:Drivers/CMSIS/DSP/Include/arm_math.h ****    */
1813:Drivers/CMSIS/DSP/Include/arm_math.h **** arm_status arm_mat_scale_q31(
1814:Drivers/CMSIS/DSP/Include/arm_math.h ****   const arm_matrix_instance_q31 * pSrc,
1815:Drivers/CMSIS/DSP/Include/arm_math.h ****         q31_t scaleFract,
1816:Drivers/CMSIS/DSP/Include/arm_math.h ****         int32_t shift,
1817:Drivers/CMSIS/DSP/Include/arm_math.h ****         arm_matrix_instance_q31 * pDst);
1818:Drivers/CMSIS/DSP/Include/arm_math.h **** 
1819:Drivers/CMSIS/DSP/Include/arm_math.h ****   /**
1820:Drivers/CMSIS/DSP/Include/arm_math.h ****    * @brief  Q31 matrix initialization.
ARM GAS  C:\Users\Joknem\AppData\Local\Temp\ccvCWXA9.s 			page 37


1821:Drivers/CMSIS/DSP/Include/arm_math.h ****    * @param[in,out] S         points to an instance of the floating-point matrix structure.
1822:Drivers/CMSIS/DSP/Include/arm_math.h ****    * @param[in]     nRows     number of rows in the matrix.
1823:Drivers/CMSIS/DSP/Include/arm_math.h ****    * @param[in]     nColumns  number of columns in the matrix.
1824:Drivers/CMSIS/DSP/Include/arm_math.h ****    * @param[in]     pData     points to the matrix data array.
1825:Drivers/CMSIS/DSP/Include/arm_math.h ****    */
1826:Drivers/CMSIS/DSP/Include/arm_math.h **** void arm_mat_init_q31(
1827:Drivers/CMSIS/DSP/Include/arm_math.h ****         arm_matrix_instance_q31 * S,
1828:Drivers/CMSIS/DSP/Include/arm_math.h ****         uint16_t nRows,
1829:Drivers/CMSIS/DSP/Include/arm_math.h ****         uint16_t nColumns,
1830:Drivers/CMSIS/DSP/Include/arm_math.h ****         q31_t * pData);
1831:Drivers/CMSIS/DSP/Include/arm_math.h **** 
1832:Drivers/CMSIS/DSP/Include/arm_math.h ****   /**
1833:Drivers/CMSIS/DSP/Include/arm_math.h ****    * @brief  Q15 matrix initialization.
1834:Drivers/CMSIS/DSP/Include/arm_math.h ****    * @param[in,out] S         points to an instance of the floating-point matrix structure.
1835:Drivers/CMSIS/DSP/Include/arm_math.h ****    * @param[in]     nRows     number of rows in the matrix.
1836:Drivers/CMSIS/DSP/Include/arm_math.h ****    * @param[in]     nColumns  number of columns in the matrix.
1837:Drivers/CMSIS/DSP/Include/arm_math.h ****    * @param[in]     pData     points to the matrix data array.
1838:Drivers/CMSIS/DSP/Include/arm_math.h ****    */
1839:Drivers/CMSIS/DSP/Include/arm_math.h **** void arm_mat_init_q15(
1840:Drivers/CMSIS/DSP/Include/arm_math.h ****         arm_matrix_instance_q15 * S,
1841:Drivers/CMSIS/DSP/Include/arm_math.h ****         uint16_t nRows,
1842:Drivers/CMSIS/DSP/Include/arm_math.h ****         uint16_t nColumns,
1843:Drivers/CMSIS/DSP/Include/arm_math.h ****         q15_t * pData);
1844:Drivers/CMSIS/DSP/Include/arm_math.h **** 
1845:Drivers/CMSIS/DSP/Include/arm_math.h ****   /**
1846:Drivers/CMSIS/DSP/Include/arm_math.h ****    * @brief  Floating-point matrix initialization.
1847:Drivers/CMSIS/DSP/Include/arm_math.h ****    * @param[in,out] S         points to an instance of the floating-point matrix structure.
1848:Drivers/CMSIS/DSP/Include/arm_math.h ****    * @param[in]     nRows     number of rows in the matrix.
1849:Drivers/CMSIS/DSP/Include/arm_math.h ****    * @param[in]     nColumns  number of columns in the matrix.
1850:Drivers/CMSIS/DSP/Include/arm_math.h ****    * @param[in]     pData     points to the matrix data array.
1851:Drivers/CMSIS/DSP/Include/arm_math.h ****    */
1852:Drivers/CMSIS/DSP/Include/arm_math.h **** void arm_mat_init_f32(
1853:Drivers/CMSIS/DSP/Include/arm_math.h ****         arm_matrix_instance_f32 * S,
1854:Drivers/CMSIS/DSP/Include/arm_math.h ****         uint16_t nRows,
1855:Drivers/CMSIS/DSP/Include/arm_math.h ****         uint16_t nColumns,
1856:Drivers/CMSIS/DSP/Include/arm_math.h ****         float32_t * pData);
1857:Drivers/CMSIS/DSP/Include/arm_math.h **** 
1858:Drivers/CMSIS/DSP/Include/arm_math.h **** 
1859:Drivers/CMSIS/DSP/Include/arm_math.h ****   /**
1860:Drivers/CMSIS/DSP/Include/arm_math.h ****    * @brief Instance structure for the Q15 PID Control.
1861:Drivers/CMSIS/DSP/Include/arm_math.h ****    */
1862:Drivers/CMSIS/DSP/Include/arm_math.h ****   typedef struct
1863:Drivers/CMSIS/DSP/Include/arm_math.h ****   {
1864:Drivers/CMSIS/DSP/Include/arm_math.h ****           q15_t A0;           /**< The derived gain, A0 = Kp + Ki + Kd . */
1865:Drivers/CMSIS/DSP/Include/arm_math.h **** #if !defined (ARM_MATH_DSP)
1866:Drivers/CMSIS/DSP/Include/arm_math.h ****           q15_t A1;
1867:Drivers/CMSIS/DSP/Include/arm_math.h ****           q15_t A2;
1868:Drivers/CMSIS/DSP/Include/arm_math.h **** #else
1869:Drivers/CMSIS/DSP/Include/arm_math.h ****           q31_t A1;           /**< The derived gain A1 = -Kp - 2Kd | Kd.*/
1870:Drivers/CMSIS/DSP/Include/arm_math.h **** #endif
1871:Drivers/CMSIS/DSP/Include/arm_math.h ****           q15_t state[3];     /**< The state array of length 3. */
1872:Drivers/CMSIS/DSP/Include/arm_math.h ****           q15_t Kp;           /**< The proportional gain. */
1873:Drivers/CMSIS/DSP/Include/arm_math.h ****           q15_t Ki;           /**< The integral gain. */
1874:Drivers/CMSIS/DSP/Include/arm_math.h ****           q15_t Kd;           /**< The derivative gain. */
1875:Drivers/CMSIS/DSP/Include/arm_math.h ****   } arm_pid_instance_q15;
1876:Drivers/CMSIS/DSP/Include/arm_math.h **** 
1877:Drivers/CMSIS/DSP/Include/arm_math.h ****   /**
ARM GAS  C:\Users\Joknem\AppData\Local\Temp\ccvCWXA9.s 			page 38


1878:Drivers/CMSIS/DSP/Include/arm_math.h ****    * @brief Instance structure for the Q31 PID Control.
1879:Drivers/CMSIS/DSP/Include/arm_math.h ****    */
1880:Drivers/CMSIS/DSP/Include/arm_math.h ****   typedef struct
1881:Drivers/CMSIS/DSP/Include/arm_math.h ****   {
1882:Drivers/CMSIS/DSP/Include/arm_math.h ****           q31_t A0;            /**< The derived gain, A0 = Kp + Ki + Kd . */
1883:Drivers/CMSIS/DSP/Include/arm_math.h ****           q31_t A1;            /**< The derived gain, A1 = -Kp - 2Kd. */
1884:Drivers/CMSIS/DSP/Include/arm_math.h ****           q31_t A2;            /**< The derived gain, A2 = Kd . */
1885:Drivers/CMSIS/DSP/Include/arm_math.h ****           q31_t state[3];      /**< The state array of length 3. */
1886:Drivers/CMSIS/DSP/Include/arm_math.h ****           q31_t Kp;            /**< The proportional gain. */
1887:Drivers/CMSIS/DSP/Include/arm_math.h ****           q31_t Ki;            /**< The integral gain. */
1888:Drivers/CMSIS/DSP/Include/arm_math.h ****           q31_t Kd;            /**< The derivative gain. */
1889:Drivers/CMSIS/DSP/Include/arm_math.h ****   } arm_pid_instance_q31;
1890:Drivers/CMSIS/DSP/Include/arm_math.h **** 
1891:Drivers/CMSIS/DSP/Include/arm_math.h ****   /**
1892:Drivers/CMSIS/DSP/Include/arm_math.h ****    * @brief Instance structure for the floating-point PID Control.
1893:Drivers/CMSIS/DSP/Include/arm_math.h ****    */
1894:Drivers/CMSIS/DSP/Include/arm_math.h ****   typedef struct
1895:Drivers/CMSIS/DSP/Include/arm_math.h ****   {
1896:Drivers/CMSIS/DSP/Include/arm_math.h ****           float32_t A0;          /**< The derived gain, A0 = Kp + Ki + Kd . */
1897:Drivers/CMSIS/DSP/Include/arm_math.h ****           float32_t A1;          /**< The derived gain, A1 = -Kp - 2Kd. */
1898:Drivers/CMSIS/DSP/Include/arm_math.h ****           float32_t A2;          /**< The derived gain, A2 = Kd . */
1899:Drivers/CMSIS/DSP/Include/arm_math.h ****           float32_t state[3];    /**< The state array of length 3. */
1900:Drivers/CMSIS/DSP/Include/arm_math.h ****           float32_t Kp;          /**< The proportional gain. */
1901:Drivers/CMSIS/DSP/Include/arm_math.h ****           float32_t Ki;          /**< The integral gain. */
1902:Drivers/CMSIS/DSP/Include/arm_math.h ****           float32_t Kd;          /**< The derivative gain. */
1903:Drivers/CMSIS/DSP/Include/arm_math.h ****   } arm_pid_instance_f32;
1904:Drivers/CMSIS/DSP/Include/arm_math.h **** 
1905:Drivers/CMSIS/DSP/Include/arm_math.h **** 
1906:Drivers/CMSIS/DSP/Include/arm_math.h **** 
1907:Drivers/CMSIS/DSP/Include/arm_math.h ****   /**
1908:Drivers/CMSIS/DSP/Include/arm_math.h ****    * @brief  Initialization function for the floating-point PID Control.
1909:Drivers/CMSIS/DSP/Include/arm_math.h ****    * @param[in,out] S               points to an instance of the PID structure.
1910:Drivers/CMSIS/DSP/Include/arm_math.h ****    * @param[in]     resetStateFlag  flag to reset the state. 0 = no change in state 1 = reset the s
1911:Drivers/CMSIS/DSP/Include/arm_math.h ****    */
1912:Drivers/CMSIS/DSP/Include/arm_math.h ****   void arm_pid_init_f32(
1913:Drivers/CMSIS/DSP/Include/arm_math.h ****         arm_pid_instance_f32 * S,
1914:Drivers/CMSIS/DSP/Include/arm_math.h ****         int32_t resetStateFlag);
1915:Drivers/CMSIS/DSP/Include/arm_math.h **** 
1916:Drivers/CMSIS/DSP/Include/arm_math.h **** 
1917:Drivers/CMSIS/DSP/Include/arm_math.h ****   /**
1918:Drivers/CMSIS/DSP/Include/arm_math.h ****    * @brief  Reset function for the floating-point PID Control.
1919:Drivers/CMSIS/DSP/Include/arm_math.h ****    * @param[in,out] S  is an instance of the floating-point PID Control structure
1920:Drivers/CMSIS/DSP/Include/arm_math.h ****    */
1921:Drivers/CMSIS/DSP/Include/arm_math.h ****   void arm_pid_reset_f32(
1922:Drivers/CMSIS/DSP/Include/arm_math.h ****         arm_pid_instance_f32 * S);
1923:Drivers/CMSIS/DSP/Include/arm_math.h **** 
1924:Drivers/CMSIS/DSP/Include/arm_math.h **** 
1925:Drivers/CMSIS/DSP/Include/arm_math.h ****   /**
1926:Drivers/CMSIS/DSP/Include/arm_math.h ****    * @brief  Initialization function for the Q31 PID Control.
1927:Drivers/CMSIS/DSP/Include/arm_math.h ****    * @param[in,out] S               points to an instance of the Q15 PID structure.
1928:Drivers/CMSIS/DSP/Include/arm_math.h ****    * @param[in]     resetStateFlag  flag to reset the state. 0 = no change in state 1 = reset the s
1929:Drivers/CMSIS/DSP/Include/arm_math.h ****    */
1930:Drivers/CMSIS/DSP/Include/arm_math.h ****   void arm_pid_init_q31(
1931:Drivers/CMSIS/DSP/Include/arm_math.h ****         arm_pid_instance_q31 * S,
1932:Drivers/CMSIS/DSP/Include/arm_math.h ****         int32_t resetStateFlag);
1933:Drivers/CMSIS/DSP/Include/arm_math.h **** 
1934:Drivers/CMSIS/DSP/Include/arm_math.h **** 
ARM GAS  C:\Users\Joknem\AppData\Local\Temp\ccvCWXA9.s 			page 39


1935:Drivers/CMSIS/DSP/Include/arm_math.h ****   /**
1936:Drivers/CMSIS/DSP/Include/arm_math.h ****    * @brief  Reset function for the Q31 PID Control.
1937:Drivers/CMSIS/DSP/Include/arm_math.h ****    * @param[in,out] S   points to an instance of the Q31 PID Control structure
1938:Drivers/CMSIS/DSP/Include/arm_math.h ****    */
1939:Drivers/CMSIS/DSP/Include/arm_math.h **** 
1940:Drivers/CMSIS/DSP/Include/arm_math.h ****   void arm_pid_reset_q31(
1941:Drivers/CMSIS/DSP/Include/arm_math.h ****         arm_pid_instance_q31 * S);
1942:Drivers/CMSIS/DSP/Include/arm_math.h **** 
1943:Drivers/CMSIS/DSP/Include/arm_math.h **** 
1944:Drivers/CMSIS/DSP/Include/arm_math.h ****   /**
1945:Drivers/CMSIS/DSP/Include/arm_math.h ****    * @brief  Initialization function for the Q15 PID Control.
1946:Drivers/CMSIS/DSP/Include/arm_math.h ****    * @param[in,out] S               points to an instance of the Q15 PID structure.
1947:Drivers/CMSIS/DSP/Include/arm_math.h ****    * @param[in]     resetStateFlag  flag to reset the state. 0 = no change in state 1 = reset the s
1948:Drivers/CMSIS/DSP/Include/arm_math.h ****    */
1949:Drivers/CMSIS/DSP/Include/arm_math.h ****   void arm_pid_init_q15(
1950:Drivers/CMSIS/DSP/Include/arm_math.h ****         arm_pid_instance_q15 * S,
1951:Drivers/CMSIS/DSP/Include/arm_math.h ****         int32_t resetStateFlag);
1952:Drivers/CMSIS/DSP/Include/arm_math.h **** 
1953:Drivers/CMSIS/DSP/Include/arm_math.h **** 
1954:Drivers/CMSIS/DSP/Include/arm_math.h ****   /**
1955:Drivers/CMSIS/DSP/Include/arm_math.h ****    * @brief  Reset function for the Q15 PID Control.
1956:Drivers/CMSIS/DSP/Include/arm_math.h ****    * @param[in,out] S  points to an instance of the q15 PID Control structure
1957:Drivers/CMSIS/DSP/Include/arm_math.h ****    */
1958:Drivers/CMSIS/DSP/Include/arm_math.h ****   void arm_pid_reset_q15(
1959:Drivers/CMSIS/DSP/Include/arm_math.h ****         arm_pid_instance_q15 * S);
1960:Drivers/CMSIS/DSP/Include/arm_math.h **** 
1961:Drivers/CMSIS/DSP/Include/arm_math.h **** 
1962:Drivers/CMSIS/DSP/Include/arm_math.h ****   /**
1963:Drivers/CMSIS/DSP/Include/arm_math.h ****    * @brief Instance structure for the floating-point Linear Interpolate function.
1964:Drivers/CMSIS/DSP/Include/arm_math.h ****    */
1965:Drivers/CMSIS/DSP/Include/arm_math.h ****   typedef struct
1966:Drivers/CMSIS/DSP/Include/arm_math.h ****   {
1967:Drivers/CMSIS/DSP/Include/arm_math.h ****           uint32_t nValues;           /**< nValues */
1968:Drivers/CMSIS/DSP/Include/arm_math.h ****           float32_t x1;               /**< x1 */
1969:Drivers/CMSIS/DSP/Include/arm_math.h ****           float32_t xSpacing;         /**< xSpacing */
1970:Drivers/CMSIS/DSP/Include/arm_math.h ****           float32_t *pYData;          /**< pointer to the table of Y values */
1971:Drivers/CMSIS/DSP/Include/arm_math.h ****   } arm_linear_interp_instance_f32;
1972:Drivers/CMSIS/DSP/Include/arm_math.h **** 
1973:Drivers/CMSIS/DSP/Include/arm_math.h ****   /**
1974:Drivers/CMSIS/DSP/Include/arm_math.h ****    * @brief Instance structure for the floating-point bilinear interpolation function.
1975:Drivers/CMSIS/DSP/Include/arm_math.h ****    */
1976:Drivers/CMSIS/DSP/Include/arm_math.h ****   typedef struct
1977:Drivers/CMSIS/DSP/Include/arm_math.h ****   {
1978:Drivers/CMSIS/DSP/Include/arm_math.h ****           uint16_t numRows;   /**< number of rows in the data table. */
1979:Drivers/CMSIS/DSP/Include/arm_math.h ****           uint16_t numCols;   /**< number of columns in the data table. */
1980:Drivers/CMSIS/DSP/Include/arm_math.h ****           float32_t *pData;   /**< points to the data table. */
1981:Drivers/CMSIS/DSP/Include/arm_math.h ****   } arm_bilinear_interp_instance_f32;
1982:Drivers/CMSIS/DSP/Include/arm_math.h **** 
1983:Drivers/CMSIS/DSP/Include/arm_math.h ****    /**
1984:Drivers/CMSIS/DSP/Include/arm_math.h ****    * @brief Instance structure for the Q31 bilinear interpolation function.
1985:Drivers/CMSIS/DSP/Include/arm_math.h ****    */
1986:Drivers/CMSIS/DSP/Include/arm_math.h ****   typedef struct
1987:Drivers/CMSIS/DSP/Include/arm_math.h ****   {
1988:Drivers/CMSIS/DSP/Include/arm_math.h ****           uint16_t numRows;   /**< number of rows in the data table. */
1989:Drivers/CMSIS/DSP/Include/arm_math.h ****           uint16_t numCols;   /**< number of columns in the data table. */
1990:Drivers/CMSIS/DSP/Include/arm_math.h ****           q31_t *pData;       /**< points to the data table. */
1991:Drivers/CMSIS/DSP/Include/arm_math.h ****   } arm_bilinear_interp_instance_q31;
ARM GAS  C:\Users\Joknem\AppData\Local\Temp\ccvCWXA9.s 			page 40


1992:Drivers/CMSIS/DSP/Include/arm_math.h **** 
1993:Drivers/CMSIS/DSP/Include/arm_math.h ****    /**
1994:Drivers/CMSIS/DSP/Include/arm_math.h ****    * @brief Instance structure for the Q15 bilinear interpolation function.
1995:Drivers/CMSIS/DSP/Include/arm_math.h ****    */
1996:Drivers/CMSIS/DSP/Include/arm_math.h ****   typedef struct
1997:Drivers/CMSIS/DSP/Include/arm_math.h ****   {
1998:Drivers/CMSIS/DSP/Include/arm_math.h ****           uint16_t numRows;   /**< number of rows in the data table. */
1999:Drivers/CMSIS/DSP/Include/arm_math.h ****           uint16_t numCols;   /**< number of columns in the data table. */
2000:Drivers/CMSIS/DSP/Include/arm_math.h ****           q15_t *pData;       /**< points to the data table. */
2001:Drivers/CMSIS/DSP/Include/arm_math.h ****   } arm_bilinear_interp_instance_q15;
2002:Drivers/CMSIS/DSP/Include/arm_math.h **** 
2003:Drivers/CMSIS/DSP/Include/arm_math.h ****    /**
2004:Drivers/CMSIS/DSP/Include/arm_math.h ****    * @brief Instance structure for the Q15 bilinear interpolation function.
2005:Drivers/CMSIS/DSP/Include/arm_math.h ****    */
2006:Drivers/CMSIS/DSP/Include/arm_math.h ****   typedef struct
2007:Drivers/CMSIS/DSP/Include/arm_math.h ****   {
2008:Drivers/CMSIS/DSP/Include/arm_math.h ****           uint16_t numRows;   /**< number of rows in the data table. */
2009:Drivers/CMSIS/DSP/Include/arm_math.h ****           uint16_t numCols;   /**< number of columns in the data table. */
2010:Drivers/CMSIS/DSP/Include/arm_math.h ****           q7_t *pData;        /**< points to the data table. */
2011:Drivers/CMSIS/DSP/Include/arm_math.h ****   } arm_bilinear_interp_instance_q7;
2012:Drivers/CMSIS/DSP/Include/arm_math.h **** 
2013:Drivers/CMSIS/DSP/Include/arm_math.h **** 
2014:Drivers/CMSIS/DSP/Include/arm_math.h ****   /**
2015:Drivers/CMSIS/DSP/Include/arm_math.h ****    * @brief Q7 vector multiplication.
2016:Drivers/CMSIS/DSP/Include/arm_math.h ****    * @param[in]  pSrcA      points to the first input vector
2017:Drivers/CMSIS/DSP/Include/arm_math.h ****    * @param[in]  pSrcB      points to the second input vector
2018:Drivers/CMSIS/DSP/Include/arm_math.h ****    * @param[out] pDst       points to the output vector
2019:Drivers/CMSIS/DSP/Include/arm_math.h ****    * @param[in]  blockSize  number of samples in each vector
2020:Drivers/CMSIS/DSP/Include/arm_math.h ****    */
2021:Drivers/CMSIS/DSP/Include/arm_math.h ****   void arm_mult_q7(
2022:Drivers/CMSIS/DSP/Include/arm_math.h ****   const q7_t * pSrcA,
2023:Drivers/CMSIS/DSP/Include/arm_math.h ****   const q7_t * pSrcB,
2024:Drivers/CMSIS/DSP/Include/arm_math.h ****         q7_t * pDst,
2025:Drivers/CMSIS/DSP/Include/arm_math.h ****         uint32_t blockSize);
2026:Drivers/CMSIS/DSP/Include/arm_math.h **** 
2027:Drivers/CMSIS/DSP/Include/arm_math.h **** 
2028:Drivers/CMSIS/DSP/Include/arm_math.h ****   /**
2029:Drivers/CMSIS/DSP/Include/arm_math.h ****    * @brief Q15 vector multiplication.
2030:Drivers/CMSIS/DSP/Include/arm_math.h ****    * @param[in]  pSrcA      points to the first input vector
2031:Drivers/CMSIS/DSP/Include/arm_math.h ****    * @param[in]  pSrcB      points to the second input vector
2032:Drivers/CMSIS/DSP/Include/arm_math.h ****    * @param[out] pDst       points to the output vector
2033:Drivers/CMSIS/DSP/Include/arm_math.h ****    * @param[in]  blockSize  number of samples in each vector
2034:Drivers/CMSIS/DSP/Include/arm_math.h ****    */
2035:Drivers/CMSIS/DSP/Include/arm_math.h ****   void arm_mult_q15(
2036:Drivers/CMSIS/DSP/Include/arm_math.h ****   const q15_t * pSrcA,
2037:Drivers/CMSIS/DSP/Include/arm_math.h ****   const q15_t * pSrcB,
2038:Drivers/CMSIS/DSP/Include/arm_math.h ****         q15_t * pDst,
2039:Drivers/CMSIS/DSP/Include/arm_math.h ****         uint32_t blockSize);
2040:Drivers/CMSIS/DSP/Include/arm_math.h **** 
2041:Drivers/CMSIS/DSP/Include/arm_math.h **** 
2042:Drivers/CMSIS/DSP/Include/arm_math.h ****   /**
2043:Drivers/CMSIS/DSP/Include/arm_math.h ****    * @brief Q31 vector multiplication.
2044:Drivers/CMSIS/DSP/Include/arm_math.h ****    * @param[in]  pSrcA      points to the first input vector
2045:Drivers/CMSIS/DSP/Include/arm_math.h ****    * @param[in]  pSrcB      points to the second input vector
2046:Drivers/CMSIS/DSP/Include/arm_math.h ****    * @param[out] pDst       points to the output vector
2047:Drivers/CMSIS/DSP/Include/arm_math.h ****    * @param[in]  blockSize  number of samples in each vector
2048:Drivers/CMSIS/DSP/Include/arm_math.h ****    */
ARM GAS  C:\Users\Joknem\AppData\Local\Temp\ccvCWXA9.s 			page 41


2049:Drivers/CMSIS/DSP/Include/arm_math.h ****   void arm_mult_q31(
2050:Drivers/CMSIS/DSP/Include/arm_math.h ****   const q31_t * pSrcA,
2051:Drivers/CMSIS/DSP/Include/arm_math.h ****   const q31_t * pSrcB,
2052:Drivers/CMSIS/DSP/Include/arm_math.h ****         q31_t * pDst,
2053:Drivers/CMSIS/DSP/Include/arm_math.h ****         uint32_t blockSize);
2054:Drivers/CMSIS/DSP/Include/arm_math.h **** 
2055:Drivers/CMSIS/DSP/Include/arm_math.h **** 
2056:Drivers/CMSIS/DSP/Include/arm_math.h ****   /**
2057:Drivers/CMSIS/DSP/Include/arm_math.h ****    * @brief Floating-point vector multiplication.
2058:Drivers/CMSIS/DSP/Include/arm_math.h ****    * @param[in]  pSrcA      points to the first input vector
2059:Drivers/CMSIS/DSP/Include/arm_math.h ****    * @param[in]  pSrcB      points to the second input vector
2060:Drivers/CMSIS/DSP/Include/arm_math.h ****    * @param[out] pDst       points to the output vector
2061:Drivers/CMSIS/DSP/Include/arm_math.h ****    * @param[in]  blockSize  number of samples in each vector
2062:Drivers/CMSIS/DSP/Include/arm_math.h ****    */
2063:Drivers/CMSIS/DSP/Include/arm_math.h ****   void arm_mult_f32(
2064:Drivers/CMSIS/DSP/Include/arm_math.h ****   const float32_t * pSrcA,
2065:Drivers/CMSIS/DSP/Include/arm_math.h ****   const float32_t * pSrcB,
2066:Drivers/CMSIS/DSP/Include/arm_math.h ****         float32_t * pDst,
2067:Drivers/CMSIS/DSP/Include/arm_math.h ****         uint32_t blockSize);
2068:Drivers/CMSIS/DSP/Include/arm_math.h **** 
2069:Drivers/CMSIS/DSP/Include/arm_math.h **** 
2070:Drivers/CMSIS/DSP/Include/arm_math.h ****   /**
2071:Drivers/CMSIS/DSP/Include/arm_math.h ****    * @brief Instance structure for the Q15 CFFT/CIFFT function.
2072:Drivers/CMSIS/DSP/Include/arm_math.h ****    */
2073:Drivers/CMSIS/DSP/Include/arm_math.h ****   typedef struct
2074:Drivers/CMSIS/DSP/Include/arm_math.h ****   {
2075:Drivers/CMSIS/DSP/Include/arm_math.h ****           uint16_t fftLen;                 /**< length of the FFT. */
2076:Drivers/CMSIS/DSP/Include/arm_math.h ****           uint8_t ifftFlag;                /**< flag that selects forward (ifftFlag=0) or inverse (
2077:Drivers/CMSIS/DSP/Include/arm_math.h ****           uint8_t bitReverseFlag;          /**< flag that enables (bitReverseFlag=1) or disables (b
2078:Drivers/CMSIS/DSP/Include/arm_math.h ****     const q15_t *pTwiddle;                 /**< points to the Sin twiddle factor table. */
2079:Drivers/CMSIS/DSP/Include/arm_math.h ****     const uint16_t *pBitRevTable;          /**< points to the bit reversal table. */
2080:Drivers/CMSIS/DSP/Include/arm_math.h ****           uint16_t twidCoefModifier;       /**< twiddle coefficient modifier that supports differen
2081:Drivers/CMSIS/DSP/Include/arm_math.h ****           uint16_t bitRevFactor;           /**< bit reversal modifier that supports different size 
2082:Drivers/CMSIS/DSP/Include/arm_math.h ****   } arm_cfft_radix2_instance_q15;
2083:Drivers/CMSIS/DSP/Include/arm_math.h **** 
2084:Drivers/CMSIS/DSP/Include/arm_math.h **** /* Deprecated */
2085:Drivers/CMSIS/DSP/Include/arm_math.h ****   arm_status arm_cfft_radix2_init_q15(
2086:Drivers/CMSIS/DSP/Include/arm_math.h ****         arm_cfft_radix2_instance_q15 * S,
2087:Drivers/CMSIS/DSP/Include/arm_math.h ****         uint16_t fftLen,
2088:Drivers/CMSIS/DSP/Include/arm_math.h ****         uint8_t ifftFlag,
2089:Drivers/CMSIS/DSP/Include/arm_math.h ****         uint8_t bitReverseFlag);
2090:Drivers/CMSIS/DSP/Include/arm_math.h **** 
2091:Drivers/CMSIS/DSP/Include/arm_math.h **** /* Deprecated */
2092:Drivers/CMSIS/DSP/Include/arm_math.h ****   void arm_cfft_radix2_q15(
2093:Drivers/CMSIS/DSP/Include/arm_math.h ****   const arm_cfft_radix2_instance_q15 * S,
2094:Drivers/CMSIS/DSP/Include/arm_math.h ****         q15_t * pSrc);
2095:Drivers/CMSIS/DSP/Include/arm_math.h **** 
2096:Drivers/CMSIS/DSP/Include/arm_math.h **** 
2097:Drivers/CMSIS/DSP/Include/arm_math.h ****   /**
2098:Drivers/CMSIS/DSP/Include/arm_math.h ****    * @brief Instance structure for the Q15 CFFT/CIFFT function.
2099:Drivers/CMSIS/DSP/Include/arm_math.h ****    */
2100:Drivers/CMSIS/DSP/Include/arm_math.h ****   typedef struct
2101:Drivers/CMSIS/DSP/Include/arm_math.h ****   {
2102:Drivers/CMSIS/DSP/Include/arm_math.h ****           uint16_t fftLen;                 /**< length of the FFT. */
2103:Drivers/CMSIS/DSP/Include/arm_math.h ****           uint8_t ifftFlag;                /**< flag that selects forward (ifftFlag=0) or inverse (
2104:Drivers/CMSIS/DSP/Include/arm_math.h ****           uint8_t bitReverseFlag;          /**< flag that enables (bitReverseFlag=1) or disables (b
2105:Drivers/CMSIS/DSP/Include/arm_math.h ****     const q15_t *pTwiddle;                 /**< points to the twiddle factor table. */
ARM GAS  C:\Users\Joknem\AppData\Local\Temp\ccvCWXA9.s 			page 42


2106:Drivers/CMSIS/DSP/Include/arm_math.h ****     const uint16_t *pBitRevTable;          /**< points to the bit reversal table. */
2107:Drivers/CMSIS/DSP/Include/arm_math.h ****           uint16_t twidCoefModifier;       /**< twiddle coefficient modifier that supports differen
2108:Drivers/CMSIS/DSP/Include/arm_math.h ****           uint16_t bitRevFactor;           /**< bit reversal modifier that supports different size 
2109:Drivers/CMSIS/DSP/Include/arm_math.h ****   } arm_cfft_radix4_instance_q15;
2110:Drivers/CMSIS/DSP/Include/arm_math.h **** 
2111:Drivers/CMSIS/DSP/Include/arm_math.h **** /* Deprecated */
2112:Drivers/CMSIS/DSP/Include/arm_math.h ****   arm_status arm_cfft_radix4_init_q15(
2113:Drivers/CMSIS/DSP/Include/arm_math.h ****         arm_cfft_radix4_instance_q15 * S,
2114:Drivers/CMSIS/DSP/Include/arm_math.h ****         uint16_t fftLen,
2115:Drivers/CMSIS/DSP/Include/arm_math.h ****         uint8_t ifftFlag,
2116:Drivers/CMSIS/DSP/Include/arm_math.h ****         uint8_t bitReverseFlag);
2117:Drivers/CMSIS/DSP/Include/arm_math.h **** 
2118:Drivers/CMSIS/DSP/Include/arm_math.h **** /* Deprecated */
2119:Drivers/CMSIS/DSP/Include/arm_math.h ****   void arm_cfft_radix4_q15(
2120:Drivers/CMSIS/DSP/Include/arm_math.h ****   const arm_cfft_radix4_instance_q15 * S,
2121:Drivers/CMSIS/DSP/Include/arm_math.h ****         q15_t * pSrc);
2122:Drivers/CMSIS/DSP/Include/arm_math.h **** 
2123:Drivers/CMSIS/DSP/Include/arm_math.h ****   /**
2124:Drivers/CMSIS/DSP/Include/arm_math.h ****    * @brief Instance structure for the Radix-2 Q31 CFFT/CIFFT function.
2125:Drivers/CMSIS/DSP/Include/arm_math.h ****    */
2126:Drivers/CMSIS/DSP/Include/arm_math.h ****   typedef struct
2127:Drivers/CMSIS/DSP/Include/arm_math.h ****   {
2128:Drivers/CMSIS/DSP/Include/arm_math.h ****           uint16_t fftLen;                 /**< length of the FFT. */
2129:Drivers/CMSIS/DSP/Include/arm_math.h ****           uint8_t ifftFlag;                /**< flag that selects forward (ifftFlag=0) or inverse (
2130:Drivers/CMSIS/DSP/Include/arm_math.h ****           uint8_t bitReverseFlag;          /**< flag that enables (bitReverseFlag=1) or disables (b
2131:Drivers/CMSIS/DSP/Include/arm_math.h ****     const q31_t *pTwiddle;                 /**< points to the Twiddle factor table. */
2132:Drivers/CMSIS/DSP/Include/arm_math.h ****     const uint16_t *pBitRevTable;          /**< points to the bit reversal table. */
2133:Drivers/CMSIS/DSP/Include/arm_math.h ****           uint16_t twidCoefModifier;       /**< twiddle coefficient modifier that supports differen
2134:Drivers/CMSIS/DSP/Include/arm_math.h ****           uint16_t bitRevFactor;           /**< bit reversal modifier that supports different size 
2135:Drivers/CMSIS/DSP/Include/arm_math.h ****   } arm_cfft_radix2_instance_q31;
2136:Drivers/CMSIS/DSP/Include/arm_math.h **** 
2137:Drivers/CMSIS/DSP/Include/arm_math.h **** /* Deprecated */
2138:Drivers/CMSIS/DSP/Include/arm_math.h ****   arm_status arm_cfft_radix2_init_q31(
2139:Drivers/CMSIS/DSP/Include/arm_math.h ****         arm_cfft_radix2_instance_q31 * S,
2140:Drivers/CMSIS/DSP/Include/arm_math.h ****         uint16_t fftLen,
2141:Drivers/CMSIS/DSP/Include/arm_math.h ****         uint8_t ifftFlag,
2142:Drivers/CMSIS/DSP/Include/arm_math.h ****         uint8_t bitReverseFlag);
2143:Drivers/CMSIS/DSP/Include/arm_math.h **** 
2144:Drivers/CMSIS/DSP/Include/arm_math.h **** /* Deprecated */
2145:Drivers/CMSIS/DSP/Include/arm_math.h ****   void arm_cfft_radix2_q31(
2146:Drivers/CMSIS/DSP/Include/arm_math.h ****   const arm_cfft_radix2_instance_q31 * S,
2147:Drivers/CMSIS/DSP/Include/arm_math.h ****         q31_t * pSrc);
2148:Drivers/CMSIS/DSP/Include/arm_math.h **** 
2149:Drivers/CMSIS/DSP/Include/arm_math.h ****   /**
2150:Drivers/CMSIS/DSP/Include/arm_math.h ****    * @brief Instance structure for the Q31 CFFT/CIFFT function.
2151:Drivers/CMSIS/DSP/Include/arm_math.h ****    */
2152:Drivers/CMSIS/DSP/Include/arm_math.h ****   typedef struct
2153:Drivers/CMSIS/DSP/Include/arm_math.h ****   {
2154:Drivers/CMSIS/DSP/Include/arm_math.h ****           uint16_t fftLen;                 /**< length of the FFT. */
2155:Drivers/CMSIS/DSP/Include/arm_math.h ****           uint8_t ifftFlag;                /**< flag that selects forward (ifftFlag=0) or inverse (
2156:Drivers/CMSIS/DSP/Include/arm_math.h ****           uint8_t bitReverseFlag;          /**< flag that enables (bitReverseFlag=1) or disables (b
2157:Drivers/CMSIS/DSP/Include/arm_math.h ****     const q31_t *pTwiddle;                 /**< points to the twiddle factor table. */
2158:Drivers/CMSIS/DSP/Include/arm_math.h ****     const uint16_t *pBitRevTable;          /**< points to the bit reversal table. */
2159:Drivers/CMSIS/DSP/Include/arm_math.h ****           uint16_t twidCoefModifier;       /**< twiddle coefficient modifier that supports differen
2160:Drivers/CMSIS/DSP/Include/arm_math.h ****           uint16_t bitRevFactor;           /**< bit reversal modifier that supports different size 
2161:Drivers/CMSIS/DSP/Include/arm_math.h ****   } arm_cfft_radix4_instance_q31;
2162:Drivers/CMSIS/DSP/Include/arm_math.h **** 
ARM GAS  C:\Users\Joknem\AppData\Local\Temp\ccvCWXA9.s 			page 43


2163:Drivers/CMSIS/DSP/Include/arm_math.h **** /* Deprecated */
2164:Drivers/CMSIS/DSP/Include/arm_math.h ****   void arm_cfft_radix4_q31(
2165:Drivers/CMSIS/DSP/Include/arm_math.h ****   const arm_cfft_radix4_instance_q31 * S,
2166:Drivers/CMSIS/DSP/Include/arm_math.h ****         q31_t * pSrc);
2167:Drivers/CMSIS/DSP/Include/arm_math.h **** 
2168:Drivers/CMSIS/DSP/Include/arm_math.h **** /* Deprecated */
2169:Drivers/CMSIS/DSP/Include/arm_math.h ****   arm_status arm_cfft_radix4_init_q31(
2170:Drivers/CMSIS/DSP/Include/arm_math.h ****         arm_cfft_radix4_instance_q31 * S,
2171:Drivers/CMSIS/DSP/Include/arm_math.h ****         uint16_t fftLen,
2172:Drivers/CMSIS/DSP/Include/arm_math.h ****         uint8_t ifftFlag,
2173:Drivers/CMSIS/DSP/Include/arm_math.h ****         uint8_t bitReverseFlag);
2174:Drivers/CMSIS/DSP/Include/arm_math.h **** 
2175:Drivers/CMSIS/DSP/Include/arm_math.h ****   /**
2176:Drivers/CMSIS/DSP/Include/arm_math.h ****    * @brief Instance structure for the floating-point CFFT/CIFFT function.
2177:Drivers/CMSIS/DSP/Include/arm_math.h ****    */
2178:Drivers/CMSIS/DSP/Include/arm_math.h ****   typedef struct
2179:Drivers/CMSIS/DSP/Include/arm_math.h ****   {
2180:Drivers/CMSIS/DSP/Include/arm_math.h ****           uint16_t fftLen;                   /**< length of the FFT. */
2181:Drivers/CMSIS/DSP/Include/arm_math.h ****           uint8_t ifftFlag;                  /**< flag that selects forward (ifftFlag=0) or inverse
2182:Drivers/CMSIS/DSP/Include/arm_math.h ****           uint8_t bitReverseFlag;            /**< flag that enables (bitReverseFlag=1) or disables 
2183:Drivers/CMSIS/DSP/Include/arm_math.h ****     const float32_t *pTwiddle;               /**< points to the Twiddle factor table. */
2184:Drivers/CMSIS/DSP/Include/arm_math.h ****     const uint16_t *pBitRevTable;            /**< points to the bit reversal table. */
2185:Drivers/CMSIS/DSP/Include/arm_math.h ****           uint16_t twidCoefModifier;         /**< twiddle coefficient modifier that supports differ
2186:Drivers/CMSIS/DSP/Include/arm_math.h ****           uint16_t bitRevFactor;             /**< bit reversal modifier that supports different siz
2187:Drivers/CMSIS/DSP/Include/arm_math.h ****           float32_t onebyfftLen;             /**< value of 1/fftLen. */
2188:Drivers/CMSIS/DSP/Include/arm_math.h ****   } arm_cfft_radix2_instance_f32;
2189:Drivers/CMSIS/DSP/Include/arm_math.h **** 
2190:Drivers/CMSIS/DSP/Include/arm_math.h **** /* Deprecated */
2191:Drivers/CMSIS/DSP/Include/arm_math.h ****   arm_status arm_cfft_radix2_init_f32(
2192:Drivers/CMSIS/DSP/Include/arm_math.h ****         arm_cfft_radix2_instance_f32 * S,
2193:Drivers/CMSIS/DSP/Include/arm_math.h ****         uint16_t fftLen,
2194:Drivers/CMSIS/DSP/Include/arm_math.h ****         uint8_t ifftFlag,
2195:Drivers/CMSIS/DSP/Include/arm_math.h ****         uint8_t bitReverseFlag);
2196:Drivers/CMSIS/DSP/Include/arm_math.h **** 
2197:Drivers/CMSIS/DSP/Include/arm_math.h **** /* Deprecated */
2198:Drivers/CMSIS/DSP/Include/arm_math.h ****   void arm_cfft_radix2_f32(
2199:Drivers/CMSIS/DSP/Include/arm_math.h ****   const arm_cfft_radix2_instance_f32 * S,
2200:Drivers/CMSIS/DSP/Include/arm_math.h ****         float32_t * pSrc);
2201:Drivers/CMSIS/DSP/Include/arm_math.h **** 
2202:Drivers/CMSIS/DSP/Include/arm_math.h ****   /**
2203:Drivers/CMSIS/DSP/Include/arm_math.h ****    * @brief Instance structure for the floating-point CFFT/CIFFT function.
2204:Drivers/CMSIS/DSP/Include/arm_math.h ****    */
2205:Drivers/CMSIS/DSP/Include/arm_math.h ****   typedef struct
2206:Drivers/CMSIS/DSP/Include/arm_math.h ****   {
2207:Drivers/CMSIS/DSP/Include/arm_math.h ****           uint16_t fftLen;                   /**< length of the FFT. */
2208:Drivers/CMSIS/DSP/Include/arm_math.h ****           uint8_t ifftFlag;                  /**< flag that selects forward (ifftFlag=0) or inverse
2209:Drivers/CMSIS/DSP/Include/arm_math.h ****           uint8_t bitReverseFlag;            /**< flag that enables (bitReverseFlag=1) or disables 
2210:Drivers/CMSIS/DSP/Include/arm_math.h ****     const float32_t *pTwiddle;               /**< points to the Twiddle factor table. */
2211:Drivers/CMSIS/DSP/Include/arm_math.h ****     const uint16_t *pBitRevTable;            /**< points to the bit reversal table. */
2212:Drivers/CMSIS/DSP/Include/arm_math.h ****           uint16_t twidCoefModifier;         /**< twiddle coefficient modifier that supports differ
2213:Drivers/CMSIS/DSP/Include/arm_math.h ****           uint16_t bitRevFactor;             /**< bit reversal modifier that supports different siz
2214:Drivers/CMSIS/DSP/Include/arm_math.h ****           float32_t onebyfftLen;             /**< value of 1/fftLen. */
2215:Drivers/CMSIS/DSP/Include/arm_math.h ****   } arm_cfft_radix4_instance_f32;
2216:Drivers/CMSIS/DSP/Include/arm_math.h **** 
2217:Drivers/CMSIS/DSP/Include/arm_math.h **** /* Deprecated */
2218:Drivers/CMSIS/DSP/Include/arm_math.h ****   arm_status arm_cfft_radix4_init_f32(
2219:Drivers/CMSIS/DSP/Include/arm_math.h ****         arm_cfft_radix4_instance_f32 * S,
ARM GAS  C:\Users\Joknem\AppData\Local\Temp\ccvCWXA9.s 			page 44


2220:Drivers/CMSIS/DSP/Include/arm_math.h ****         uint16_t fftLen,
2221:Drivers/CMSIS/DSP/Include/arm_math.h ****         uint8_t ifftFlag,
2222:Drivers/CMSIS/DSP/Include/arm_math.h ****         uint8_t bitReverseFlag);
2223:Drivers/CMSIS/DSP/Include/arm_math.h **** 
2224:Drivers/CMSIS/DSP/Include/arm_math.h **** /* Deprecated */
2225:Drivers/CMSIS/DSP/Include/arm_math.h ****   void arm_cfft_radix4_f32(
2226:Drivers/CMSIS/DSP/Include/arm_math.h ****   const arm_cfft_radix4_instance_f32 * S,
2227:Drivers/CMSIS/DSP/Include/arm_math.h ****         float32_t * pSrc);
2228:Drivers/CMSIS/DSP/Include/arm_math.h **** 
2229:Drivers/CMSIS/DSP/Include/arm_math.h ****   /**
2230:Drivers/CMSIS/DSP/Include/arm_math.h ****    * @brief Instance structure for the fixed-point CFFT/CIFFT function.
2231:Drivers/CMSIS/DSP/Include/arm_math.h ****    */
2232:Drivers/CMSIS/DSP/Include/arm_math.h ****   typedef struct
2233:Drivers/CMSIS/DSP/Include/arm_math.h ****   {
2234:Drivers/CMSIS/DSP/Include/arm_math.h ****           uint16_t fftLen;                   /**< length of the FFT. */
2235:Drivers/CMSIS/DSP/Include/arm_math.h ****     const q15_t *pTwiddle;             /**< points to the Twiddle factor table. */
2236:Drivers/CMSIS/DSP/Include/arm_math.h ****     const uint16_t *pBitRevTable;      /**< points to the bit reversal table. */
2237:Drivers/CMSIS/DSP/Include/arm_math.h ****           uint16_t bitRevLength;             /**< bit reversal table length. */
2238:Drivers/CMSIS/DSP/Include/arm_math.h ****   } arm_cfft_instance_q15;
2239:Drivers/CMSIS/DSP/Include/arm_math.h **** 
2240:Drivers/CMSIS/DSP/Include/arm_math.h **** void arm_cfft_q15(
2241:Drivers/CMSIS/DSP/Include/arm_math.h ****     const arm_cfft_instance_q15 * S,
2242:Drivers/CMSIS/DSP/Include/arm_math.h ****           q15_t * p1,
2243:Drivers/CMSIS/DSP/Include/arm_math.h ****           uint8_t ifftFlag,
2244:Drivers/CMSIS/DSP/Include/arm_math.h ****           uint8_t bitReverseFlag);
2245:Drivers/CMSIS/DSP/Include/arm_math.h **** 
2246:Drivers/CMSIS/DSP/Include/arm_math.h ****   /**
2247:Drivers/CMSIS/DSP/Include/arm_math.h ****    * @brief Instance structure for the fixed-point CFFT/CIFFT function.
2248:Drivers/CMSIS/DSP/Include/arm_math.h ****    */
2249:Drivers/CMSIS/DSP/Include/arm_math.h ****   typedef struct
2250:Drivers/CMSIS/DSP/Include/arm_math.h ****   {
2251:Drivers/CMSIS/DSP/Include/arm_math.h ****           uint16_t fftLen;                   /**< length of the FFT. */
2252:Drivers/CMSIS/DSP/Include/arm_math.h ****     const q31_t *pTwiddle;             /**< points to the Twiddle factor table. */
2253:Drivers/CMSIS/DSP/Include/arm_math.h ****     const uint16_t *pBitRevTable;      /**< points to the bit reversal table. */
2254:Drivers/CMSIS/DSP/Include/arm_math.h ****           uint16_t bitRevLength;             /**< bit reversal table length. */
2255:Drivers/CMSIS/DSP/Include/arm_math.h ****   } arm_cfft_instance_q31;
2256:Drivers/CMSIS/DSP/Include/arm_math.h **** 
2257:Drivers/CMSIS/DSP/Include/arm_math.h **** void arm_cfft_q31(
2258:Drivers/CMSIS/DSP/Include/arm_math.h ****     const arm_cfft_instance_q31 * S,
2259:Drivers/CMSIS/DSP/Include/arm_math.h ****           q31_t * p1,
2260:Drivers/CMSIS/DSP/Include/arm_math.h ****           uint8_t ifftFlag,
2261:Drivers/CMSIS/DSP/Include/arm_math.h ****           uint8_t bitReverseFlag);
2262:Drivers/CMSIS/DSP/Include/arm_math.h **** 
2263:Drivers/CMSIS/DSP/Include/arm_math.h ****   /**
2264:Drivers/CMSIS/DSP/Include/arm_math.h ****    * @brief Instance structure for the floating-point CFFT/CIFFT function.
2265:Drivers/CMSIS/DSP/Include/arm_math.h ****    */
2266:Drivers/CMSIS/DSP/Include/arm_math.h ****   typedef struct
2267:Drivers/CMSIS/DSP/Include/arm_math.h ****   {
2268:Drivers/CMSIS/DSP/Include/arm_math.h ****           uint16_t fftLen;                   /**< length of the FFT. */
2269:Drivers/CMSIS/DSP/Include/arm_math.h ****     const float32_t *pTwiddle;         /**< points to the Twiddle factor table. */
2270:Drivers/CMSIS/DSP/Include/arm_math.h ****     const uint16_t *pBitRevTable;      /**< points to the bit reversal table. */
2271:Drivers/CMSIS/DSP/Include/arm_math.h ****           uint16_t bitRevLength;             /**< bit reversal table length. */
2272:Drivers/CMSIS/DSP/Include/arm_math.h ****   } arm_cfft_instance_f32;
2273:Drivers/CMSIS/DSP/Include/arm_math.h **** 
2274:Drivers/CMSIS/DSP/Include/arm_math.h ****   void arm_cfft_f32(
2275:Drivers/CMSIS/DSP/Include/arm_math.h ****   const arm_cfft_instance_f32 * S,
2276:Drivers/CMSIS/DSP/Include/arm_math.h ****         float32_t * p1,
ARM GAS  C:\Users\Joknem\AppData\Local\Temp\ccvCWXA9.s 			page 45


2277:Drivers/CMSIS/DSP/Include/arm_math.h ****         uint8_t ifftFlag,
2278:Drivers/CMSIS/DSP/Include/arm_math.h ****         uint8_t bitReverseFlag);
2279:Drivers/CMSIS/DSP/Include/arm_math.h **** 
2280:Drivers/CMSIS/DSP/Include/arm_math.h ****   /**
2281:Drivers/CMSIS/DSP/Include/arm_math.h ****    * @brief Instance structure for the Q15 RFFT/RIFFT function.
2282:Drivers/CMSIS/DSP/Include/arm_math.h ****    */
2283:Drivers/CMSIS/DSP/Include/arm_math.h ****   typedef struct
2284:Drivers/CMSIS/DSP/Include/arm_math.h ****   {
2285:Drivers/CMSIS/DSP/Include/arm_math.h ****           uint32_t fftLenReal;                      /**< length of the real FFT. */
2286:Drivers/CMSIS/DSP/Include/arm_math.h ****           uint8_t ifftFlagR;                        /**< flag that selects forward (ifftFlagR=0) or
2287:Drivers/CMSIS/DSP/Include/arm_math.h ****           uint8_t bitReverseFlagR;                  /**< flag that enables (bitReverseFlagR=1) or d
2288:Drivers/CMSIS/DSP/Include/arm_math.h ****           uint32_t twidCoefRModifier;               /**< twiddle coefficient modifier that supports
2289:Drivers/CMSIS/DSP/Include/arm_math.h ****     const q15_t *pTwiddleAReal;                     /**< points to the real twiddle factor table. *
2290:Drivers/CMSIS/DSP/Include/arm_math.h ****     const q15_t *pTwiddleBReal;                     /**< points to the imag twiddle factor table. *
2291:Drivers/CMSIS/DSP/Include/arm_math.h ****     const arm_cfft_instance_q15 *pCfft;       /**< points to the complex FFT instance. */
2292:Drivers/CMSIS/DSP/Include/arm_math.h ****   } arm_rfft_instance_q15;
2293:Drivers/CMSIS/DSP/Include/arm_math.h **** 
2294:Drivers/CMSIS/DSP/Include/arm_math.h ****   arm_status arm_rfft_init_q15(
2295:Drivers/CMSIS/DSP/Include/arm_math.h ****         arm_rfft_instance_q15 * S,
2296:Drivers/CMSIS/DSP/Include/arm_math.h ****         uint32_t fftLenReal,
2297:Drivers/CMSIS/DSP/Include/arm_math.h ****         uint32_t ifftFlagR,
2298:Drivers/CMSIS/DSP/Include/arm_math.h ****         uint32_t bitReverseFlag);
2299:Drivers/CMSIS/DSP/Include/arm_math.h **** 
2300:Drivers/CMSIS/DSP/Include/arm_math.h ****   void arm_rfft_q15(
2301:Drivers/CMSIS/DSP/Include/arm_math.h ****   const arm_rfft_instance_q15 * S,
2302:Drivers/CMSIS/DSP/Include/arm_math.h ****         q15_t * pSrc,
2303:Drivers/CMSIS/DSP/Include/arm_math.h ****         q15_t * pDst);
2304:Drivers/CMSIS/DSP/Include/arm_math.h **** 
2305:Drivers/CMSIS/DSP/Include/arm_math.h ****   /**
2306:Drivers/CMSIS/DSP/Include/arm_math.h ****    * @brief Instance structure for the Q31 RFFT/RIFFT function.
2307:Drivers/CMSIS/DSP/Include/arm_math.h ****    */
2308:Drivers/CMSIS/DSP/Include/arm_math.h ****   typedef struct
2309:Drivers/CMSIS/DSP/Include/arm_math.h ****   {
2310:Drivers/CMSIS/DSP/Include/arm_math.h ****           uint32_t fftLenReal;                        /**< length of the real FFT. */
2311:Drivers/CMSIS/DSP/Include/arm_math.h ****           uint8_t ifftFlagR;                          /**< flag that selects forward (ifftFlagR=0) 
2312:Drivers/CMSIS/DSP/Include/arm_math.h ****           uint8_t bitReverseFlagR;                    /**< flag that enables (bitReverseFlagR=1) or
2313:Drivers/CMSIS/DSP/Include/arm_math.h ****           uint32_t twidCoefRModifier;                 /**< twiddle coefficient modifier that suppor
2314:Drivers/CMSIS/DSP/Include/arm_math.h ****     const q31_t *pTwiddleAReal;                       /**< points to the real twiddle factor table.
2315:Drivers/CMSIS/DSP/Include/arm_math.h ****     const q31_t *pTwiddleBReal;                       /**< points to the imag twiddle factor table.
2316:Drivers/CMSIS/DSP/Include/arm_math.h ****     const arm_cfft_instance_q31 *pCfft;         /**< points to the complex FFT instance. */
2317:Drivers/CMSIS/DSP/Include/arm_math.h ****   } arm_rfft_instance_q31;
2318:Drivers/CMSIS/DSP/Include/arm_math.h **** 
2319:Drivers/CMSIS/DSP/Include/arm_math.h ****   arm_status arm_rfft_init_q31(
2320:Drivers/CMSIS/DSP/Include/arm_math.h ****         arm_rfft_instance_q31 * S,
2321:Drivers/CMSIS/DSP/Include/arm_math.h ****         uint32_t fftLenReal,
2322:Drivers/CMSIS/DSP/Include/arm_math.h ****         uint32_t ifftFlagR,
2323:Drivers/CMSIS/DSP/Include/arm_math.h ****         uint32_t bitReverseFlag);
2324:Drivers/CMSIS/DSP/Include/arm_math.h **** 
2325:Drivers/CMSIS/DSP/Include/arm_math.h ****   void arm_rfft_q31(
2326:Drivers/CMSIS/DSP/Include/arm_math.h ****   const arm_rfft_instance_q31 * S,
2327:Drivers/CMSIS/DSP/Include/arm_math.h ****         q31_t * pSrc,
2328:Drivers/CMSIS/DSP/Include/arm_math.h ****         q31_t * pDst);
2329:Drivers/CMSIS/DSP/Include/arm_math.h **** 
2330:Drivers/CMSIS/DSP/Include/arm_math.h ****   /**
2331:Drivers/CMSIS/DSP/Include/arm_math.h ****    * @brief Instance structure for the floating-point RFFT/RIFFT function.
2332:Drivers/CMSIS/DSP/Include/arm_math.h ****    */
2333:Drivers/CMSIS/DSP/Include/arm_math.h ****   typedef struct
ARM GAS  C:\Users\Joknem\AppData\Local\Temp\ccvCWXA9.s 			page 46


2334:Drivers/CMSIS/DSP/Include/arm_math.h ****   {
2335:Drivers/CMSIS/DSP/Include/arm_math.h ****           uint32_t fftLenReal;                        /**< length of the real FFT. */
2336:Drivers/CMSIS/DSP/Include/arm_math.h ****           uint16_t fftLenBy2;                         /**< length of the complex FFT. */
2337:Drivers/CMSIS/DSP/Include/arm_math.h ****           uint8_t ifftFlagR;                          /**< flag that selects forward (ifftFlagR=0) 
2338:Drivers/CMSIS/DSP/Include/arm_math.h ****           uint8_t bitReverseFlagR;                    /**< flag that enables (bitReverseFlagR=1) or
2339:Drivers/CMSIS/DSP/Include/arm_math.h ****           uint32_t twidCoefRModifier;                     /**< twiddle coefficient modifier that su
2340:Drivers/CMSIS/DSP/Include/arm_math.h ****     const float32_t *pTwiddleAReal;                   /**< points to the real twiddle factor table.
2341:Drivers/CMSIS/DSP/Include/arm_math.h ****     const float32_t *pTwiddleBReal;                   /**< points to the imag twiddle factor table.
2342:Drivers/CMSIS/DSP/Include/arm_math.h ****           arm_cfft_radix4_instance_f32 *pCfft;        /**< points to the complex FFT instance. */
2343:Drivers/CMSIS/DSP/Include/arm_math.h ****   } arm_rfft_instance_f32;
2344:Drivers/CMSIS/DSP/Include/arm_math.h **** 
2345:Drivers/CMSIS/DSP/Include/arm_math.h ****   arm_status arm_rfft_init_f32(
2346:Drivers/CMSIS/DSP/Include/arm_math.h ****         arm_rfft_instance_f32 * S,
2347:Drivers/CMSIS/DSP/Include/arm_math.h ****         arm_cfft_radix4_instance_f32 * S_CFFT,
2348:Drivers/CMSIS/DSP/Include/arm_math.h ****         uint32_t fftLenReal,
2349:Drivers/CMSIS/DSP/Include/arm_math.h ****         uint32_t ifftFlagR,
2350:Drivers/CMSIS/DSP/Include/arm_math.h ****         uint32_t bitReverseFlag);
2351:Drivers/CMSIS/DSP/Include/arm_math.h **** 
2352:Drivers/CMSIS/DSP/Include/arm_math.h ****   void arm_rfft_f32(
2353:Drivers/CMSIS/DSP/Include/arm_math.h ****   const arm_rfft_instance_f32 * S,
2354:Drivers/CMSIS/DSP/Include/arm_math.h ****         float32_t * pSrc,
2355:Drivers/CMSIS/DSP/Include/arm_math.h ****         float32_t * pDst);
2356:Drivers/CMSIS/DSP/Include/arm_math.h **** 
2357:Drivers/CMSIS/DSP/Include/arm_math.h ****   /**
2358:Drivers/CMSIS/DSP/Include/arm_math.h ****    * @brief Instance structure for the floating-point RFFT/RIFFT function.
2359:Drivers/CMSIS/DSP/Include/arm_math.h ****    */
2360:Drivers/CMSIS/DSP/Include/arm_math.h **** typedef struct
2361:Drivers/CMSIS/DSP/Include/arm_math.h ****   {
2362:Drivers/CMSIS/DSP/Include/arm_math.h ****           arm_cfft_instance_f32 Sint;      /**< Internal CFFT structure. */
2363:Drivers/CMSIS/DSP/Include/arm_math.h ****           uint16_t fftLenRFFT;             /**< length of the real sequence */
2364:Drivers/CMSIS/DSP/Include/arm_math.h ****     const float32_t * pTwiddleRFFT;        /**< Twiddle factors real stage  */
2365:Drivers/CMSIS/DSP/Include/arm_math.h ****   } arm_rfft_fast_instance_f32 ;
2366:Drivers/CMSIS/DSP/Include/arm_math.h **** 
2367:Drivers/CMSIS/DSP/Include/arm_math.h **** arm_status arm_rfft_fast_init_f32 (
2368:Drivers/CMSIS/DSP/Include/arm_math.h ****          arm_rfft_fast_instance_f32 * S,
2369:Drivers/CMSIS/DSP/Include/arm_math.h ****          uint16_t fftLen);
2370:Drivers/CMSIS/DSP/Include/arm_math.h **** 
2371:Drivers/CMSIS/DSP/Include/arm_math.h **** arm_status arm_rfft_32_fast_init_f32 ( arm_rfft_fast_instance_f32 * S );
2372:Drivers/CMSIS/DSP/Include/arm_math.h **** 
2373:Drivers/CMSIS/DSP/Include/arm_math.h **** arm_status arm_rfft_64_fast_init_f32 ( arm_rfft_fast_instance_f32 * S );
2374:Drivers/CMSIS/DSP/Include/arm_math.h **** 
2375:Drivers/CMSIS/DSP/Include/arm_math.h **** arm_status arm_rfft_128_fast_init_f32 ( arm_rfft_fast_instance_f32 * S );
2376:Drivers/CMSIS/DSP/Include/arm_math.h **** 
2377:Drivers/CMSIS/DSP/Include/arm_math.h **** arm_status arm_rfft_256_fast_init_f32 ( arm_rfft_fast_instance_f32 * S );
2378:Drivers/CMSIS/DSP/Include/arm_math.h **** 
2379:Drivers/CMSIS/DSP/Include/arm_math.h **** arm_status arm_rfft_512_fast_init_f32 ( arm_rfft_fast_instance_f32 * S );
2380:Drivers/CMSIS/DSP/Include/arm_math.h **** 
2381:Drivers/CMSIS/DSP/Include/arm_math.h **** arm_status arm_rfft_1024_fast_init_f32 ( arm_rfft_fast_instance_f32 * S );
2382:Drivers/CMSIS/DSP/Include/arm_math.h **** 
2383:Drivers/CMSIS/DSP/Include/arm_math.h **** arm_status arm_rfft_2048_fast_init_f32 ( arm_rfft_fast_instance_f32 * S );
2384:Drivers/CMSIS/DSP/Include/arm_math.h **** 
2385:Drivers/CMSIS/DSP/Include/arm_math.h **** arm_status arm_rfft_4096_fast_init_f32 ( arm_rfft_fast_instance_f32 * S );
2386:Drivers/CMSIS/DSP/Include/arm_math.h **** 
2387:Drivers/CMSIS/DSP/Include/arm_math.h **** 
2388:Drivers/CMSIS/DSP/Include/arm_math.h ****   void arm_rfft_fast_f32(
2389:Drivers/CMSIS/DSP/Include/arm_math.h ****         arm_rfft_fast_instance_f32 * S,
2390:Drivers/CMSIS/DSP/Include/arm_math.h ****         float32_t * p, float32_t * pOut,
ARM GAS  C:\Users\Joknem\AppData\Local\Temp\ccvCWXA9.s 			page 47


2391:Drivers/CMSIS/DSP/Include/arm_math.h ****         uint8_t ifftFlag);
2392:Drivers/CMSIS/DSP/Include/arm_math.h **** 
2393:Drivers/CMSIS/DSP/Include/arm_math.h ****   /**
2394:Drivers/CMSIS/DSP/Include/arm_math.h ****    * @brief Instance structure for the floating-point DCT4/IDCT4 function.
2395:Drivers/CMSIS/DSP/Include/arm_math.h ****    */
2396:Drivers/CMSIS/DSP/Include/arm_math.h ****   typedef struct
2397:Drivers/CMSIS/DSP/Include/arm_math.h ****   {
2398:Drivers/CMSIS/DSP/Include/arm_math.h ****           uint16_t N;                          /**< length of the DCT4. */
2399:Drivers/CMSIS/DSP/Include/arm_math.h ****           uint16_t Nby2;                       /**< half of the length of the DCT4. */
2400:Drivers/CMSIS/DSP/Include/arm_math.h ****           float32_t normalize;                 /**< normalizing factor. */
2401:Drivers/CMSIS/DSP/Include/arm_math.h ****     const float32_t *pTwiddle;                 /**< points to the twiddle factor table. */
2402:Drivers/CMSIS/DSP/Include/arm_math.h ****     const float32_t *pCosFactor;               /**< points to the cosFactor table. */
2403:Drivers/CMSIS/DSP/Include/arm_math.h ****           arm_rfft_instance_f32 *pRfft;        /**< points to the real FFT instance. */
2404:Drivers/CMSIS/DSP/Include/arm_math.h ****           arm_cfft_radix4_instance_f32 *pCfft; /**< points to the complex FFT instance. */
2405:Drivers/CMSIS/DSP/Include/arm_math.h ****   } arm_dct4_instance_f32;
2406:Drivers/CMSIS/DSP/Include/arm_math.h **** 
2407:Drivers/CMSIS/DSP/Include/arm_math.h **** 
2408:Drivers/CMSIS/DSP/Include/arm_math.h ****   /**
2409:Drivers/CMSIS/DSP/Include/arm_math.h ****    * @brief  Initialization function for the floating-point DCT4/IDCT4.
2410:Drivers/CMSIS/DSP/Include/arm_math.h ****    * @param[in,out] S          points to an instance of floating-point DCT4/IDCT4 structure.
2411:Drivers/CMSIS/DSP/Include/arm_math.h ****    * @param[in]     S_RFFT     points to an instance of floating-point RFFT/RIFFT structure.
2412:Drivers/CMSIS/DSP/Include/arm_math.h ****    * @param[in]     S_CFFT     points to an instance of floating-point CFFT/CIFFT structure.
2413:Drivers/CMSIS/DSP/Include/arm_math.h ****    * @param[in]     N          length of the DCT4.
2414:Drivers/CMSIS/DSP/Include/arm_math.h ****    * @param[in]     Nby2       half of the length of the DCT4.
2415:Drivers/CMSIS/DSP/Include/arm_math.h ****    * @param[in]     normalize  normalizing factor.
2416:Drivers/CMSIS/DSP/Include/arm_math.h ****    * @return      arm_status function returns ARM_MATH_SUCCESS if initialization is successful or A
2417:Drivers/CMSIS/DSP/Include/arm_math.h ****    */
2418:Drivers/CMSIS/DSP/Include/arm_math.h ****   arm_status arm_dct4_init_f32(
2419:Drivers/CMSIS/DSP/Include/arm_math.h ****         arm_dct4_instance_f32 * S,
2420:Drivers/CMSIS/DSP/Include/arm_math.h ****         arm_rfft_instance_f32 * S_RFFT,
2421:Drivers/CMSIS/DSP/Include/arm_math.h ****         arm_cfft_radix4_instance_f32 * S_CFFT,
2422:Drivers/CMSIS/DSP/Include/arm_math.h ****         uint16_t N,
2423:Drivers/CMSIS/DSP/Include/arm_math.h ****         uint16_t Nby2,
2424:Drivers/CMSIS/DSP/Include/arm_math.h ****         float32_t normalize);
2425:Drivers/CMSIS/DSP/Include/arm_math.h **** 
2426:Drivers/CMSIS/DSP/Include/arm_math.h **** 
2427:Drivers/CMSIS/DSP/Include/arm_math.h ****   /**
2428:Drivers/CMSIS/DSP/Include/arm_math.h ****    * @brief Processing function for the floating-point DCT4/IDCT4.
2429:Drivers/CMSIS/DSP/Include/arm_math.h ****    * @param[in]     S              points to an instance of the floating-point DCT4/IDCT4 structure
2430:Drivers/CMSIS/DSP/Include/arm_math.h ****    * @param[in]     pState         points to state buffer.
2431:Drivers/CMSIS/DSP/Include/arm_math.h ****    * @param[in,out] pInlineBuffer  points to the in-place input and output buffer.
2432:Drivers/CMSIS/DSP/Include/arm_math.h ****    */
2433:Drivers/CMSIS/DSP/Include/arm_math.h ****   void arm_dct4_f32(
2434:Drivers/CMSIS/DSP/Include/arm_math.h ****   const arm_dct4_instance_f32 * S,
2435:Drivers/CMSIS/DSP/Include/arm_math.h ****         float32_t * pState,
2436:Drivers/CMSIS/DSP/Include/arm_math.h ****         float32_t * pInlineBuffer);
2437:Drivers/CMSIS/DSP/Include/arm_math.h **** 
2438:Drivers/CMSIS/DSP/Include/arm_math.h **** 
2439:Drivers/CMSIS/DSP/Include/arm_math.h ****   /**
2440:Drivers/CMSIS/DSP/Include/arm_math.h ****    * @brief Instance structure for the Q31 DCT4/IDCT4 function.
2441:Drivers/CMSIS/DSP/Include/arm_math.h ****    */
2442:Drivers/CMSIS/DSP/Include/arm_math.h ****   typedef struct
2443:Drivers/CMSIS/DSP/Include/arm_math.h ****   {
2444:Drivers/CMSIS/DSP/Include/arm_math.h ****           uint16_t N;                          /**< length of the DCT4. */
2445:Drivers/CMSIS/DSP/Include/arm_math.h ****           uint16_t Nby2;                       /**< half of the length of the DCT4. */
2446:Drivers/CMSIS/DSP/Include/arm_math.h ****           q31_t normalize;                     /**< normalizing factor. */
2447:Drivers/CMSIS/DSP/Include/arm_math.h ****     const q31_t *pTwiddle;                     /**< points to the twiddle factor table. */
ARM GAS  C:\Users\Joknem\AppData\Local\Temp\ccvCWXA9.s 			page 48


2448:Drivers/CMSIS/DSP/Include/arm_math.h ****     const q31_t *pCosFactor;                   /**< points to the cosFactor table. */
2449:Drivers/CMSIS/DSP/Include/arm_math.h ****           arm_rfft_instance_q31 *pRfft;        /**< points to the real FFT instance. */
2450:Drivers/CMSIS/DSP/Include/arm_math.h ****           arm_cfft_radix4_instance_q31 *pCfft; /**< points to the complex FFT instance. */
2451:Drivers/CMSIS/DSP/Include/arm_math.h ****   } arm_dct4_instance_q31;
2452:Drivers/CMSIS/DSP/Include/arm_math.h **** 
2453:Drivers/CMSIS/DSP/Include/arm_math.h **** 
2454:Drivers/CMSIS/DSP/Include/arm_math.h ****   /**
2455:Drivers/CMSIS/DSP/Include/arm_math.h ****    * @brief  Initialization function for the Q31 DCT4/IDCT4.
2456:Drivers/CMSIS/DSP/Include/arm_math.h ****    * @param[in,out] S          points to an instance of Q31 DCT4/IDCT4 structure.
2457:Drivers/CMSIS/DSP/Include/arm_math.h ****    * @param[in]     S_RFFT     points to an instance of Q31 RFFT/RIFFT structure
2458:Drivers/CMSIS/DSP/Include/arm_math.h ****    * @param[in]     S_CFFT     points to an instance of Q31 CFFT/CIFFT structure
2459:Drivers/CMSIS/DSP/Include/arm_math.h ****    * @param[in]     N          length of the DCT4.
2460:Drivers/CMSIS/DSP/Include/arm_math.h ****    * @param[in]     Nby2       half of the length of the DCT4.
2461:Drivers/CMSIS/DSP/Include/arm_math.h ****    * @param[in]     normalize  normalizing factor.
2462:Drivers/CMSIS/DSP/Include/arm_math.h ****    * @return      arm_status function returns ARM_MATH_SUCCESS if initialization is successful or A
2463:Drivers/CMSIS/DSP/Include/arm_math.h ****    */
2464:Drivers/CMSIS/DSP/Include/arm_math.h ****   arm_status arm_dct4_init_q31(
2465:Drivers/CMSIS/DSP/Include/arm_math.h ****         arm_dct4_instance_q31 * S,
2466:Drivers/CMSIS/DSP/Include/arm_math.h ****         arm_rfft_instance_q31 * S_RFFT,
2467:Drivers/CMSIS/DSP/Include/arm_math.h ****         arm_cfft_radix4_instance_q31 * S_CFFT,
2468:Drivers/CMSIS/DSP/Include/arm_math.h ****         uint16_t N,
2469:Drivers/CMSIS/DSP/Include/arm_math.h ****         uint16_t Nby2,
2470:Drivers/CMSIS/DSP/Include/arm_math.h ****         q31_t normalize);
2471:Drivers/CMSIS/DSP/Include/arm_math.h **** 
2472:Drivers/CMSIS/DSP/Include/arm_math.h **** 
2473:Drivers/CMSIS/DSP/Include/arm_math.h ****   /**
2474:Drivers/CMSIS/DSP/Include/arm_math.h ****    * @brief Processing function for the Q31 DCT4/IDCT4.
2475:Drivers/CMSIS/DSP/Include/arm_math.h ****    * @param[in]     S              points to an instance of the Q31 DCT4 structure.
2476:Drivers/CMSIS/DSP/Include/arm_math.h ****    * @param[in]     pState         points to state buffer.
2477:Drivers/CMSIS/DSP/Include/arm_math.h ****    * @param[in,out] pInlineBuffer  points to the in-place input and output buffer.
2478:Drivers/CMSIS/DSP/Include/arm_math.h ****    */
2479:Drivers/CMSIS/DSP/Include/arm_math.h ****   void arm_dct4_q31(
2480:Drivers/CMSIS/DSP/Include/arm_math.h ****   const arm_dct4_instance_q31 * S,
2481:Drivers/CMSIS/DSP/Include/arm_math.h ****         q31_t * pState,
2482:Drivers/CMSIS/DSP/Include/arm_math.h ****         q31_t * pInlineBuffer);
2483:Drivers/CMSIS/DSP/Include/arm_math.h **** 
2484:Drivers/CMSIS/DSP/Include/arm_math.h **** 
2485:Drivers/CMSIS/DSP/Include/arm_math.h ****   /**
2486:Drivers/CMSIS/DSP/Include/arm_math.h ****    * @brief Instance structure for the Q15 DCT4/IDCT4 function.
2487:Drivers/CMSIS/DSP/Include/arm_math.h ****    */
2488:Drivers/CMSIS/DSP/Include/arm_math.h ****   typedef struct
2489:Drivers/CMSIS/DSP/Include/arm_math.h ****   {
2490:Drivers/CMSIS/DSP/Include/arm_math.h ****           uint16_t N;                          /**< length of the DCT4. */
2491:Drivers/CMSIS/DSP/Include/arm_math.h ****           uint16_t Nby2;                       /**< half of the length of the DCT4. */
2492:Drivers/CMSIS/DSP/Include/arm_math.h ****           q15_t normalize;                     /**< normalizing factor. */
2493:Drivers/CMSIS/DSP/Include/arm_math.h ****     const q15_t *pTwiddle;                     /**< points to the twiddle factor table. */
2494:Drivers/CMSIS/DSP/Include/arm_math.h ****     const q15_t *pCosFactor;                   /**< points to the cosFactor table. */
2495:Drivers/CMSIS/DSP/Include/arm_math.h ****           arm_rfft_instance_q15 *pRfft;        /**< points to the real FFT instance. */
2496:Drivers/CMSIS/DSP/Include/arm_math.h ****           arm_cfft_radix4_instance_q15 *pCfft; /**< points to the complex FFT instance. */
2497:Drivers/CMSIS/DSP/Include/arm_math.h ****   } arm_dct4_instance_q15;
2498:Drivers/CMSIS/DSP/Include/arm_math.h **** 
2499:Drivers/CMSIS/DSP/Include/arm_math.h **** 
2500:Drivers/CMSIS/DSP/Include/arm_math.h ****   /**
2501:Drivers/CMSIS/DSP/Include/arm_math.h ****    * @brief  Initialization function for the Q15 DCT4/IDCT4.
2502:Drivers/CMSIS/DSP/Include/arm_math.h ****    * @param[in,out] S          points to an instance of Q15 DCT4/IDCT4 structure.
2503:Drivers/CMSIS/DSP/Include/arm_math.h ****    * @param[in]     S_RFFT     points to an instance of Q15 RFFT/RIFFT structure.
2504:Drivers/CMSIS/DSP/Include/arm_math.h ****    * @param[in]     S_CFFT     points to an instance of Q15 CFFT/CIFFT structure.
ARM GAS  C:\Users\Joknem\AppData\Local\Temp\ccvCWXA9.s 			page 49


2505:Drivers/CMSIS/DSP/Include/arm_math.h ****    * @param[in]     N          length of the DCT4.
2506:Drivers/CMSIS/DSP/Include/arm_math.h ****    * @param[in]     Nby2       half of the length of the DCT4.
2507:Drivers/CMSIS/DSP/Include/arm_math.h ****    * @param[in]     normalize  normalizing factor.
2508:Drivers/CMSIS/DSP/Include/arm_math.h ****    * @return      arm_status function returns ARM_MATH_SUCCESS if initialization is successful or A
2509:Drivers/CMSIS/DSP/Include/arm_math.h ****    */
2510:Drivers/CMSIS/DSP/Include/arm_math.h ****   arm_status arm_dct4_init_q15(
2511:Drivers/CMSIS/DSP/Include/arm_math.h ****         arm_dct4_instance_q15 * S,
2512:Drivers/CMSIS/DSP/Include/arm_math.h ****         arm_rfft_instance_q15 * S_RFFT,
2513:Drivers/CMSIS/DSP/Include/arm_math.h ****         arm_cfft_radix4_instance_q15 * S_CFFT,
2514:Drivers/CMSIS/DSP/Include/arm_math.h ****         uint16_t N,
2515:Drivers/CMSIS/DSP/Include/arm_math.h ****         uint16_t Nby2,
2516:Drivers/CMSIS/DSP/Include/arm_math.h ****         q15_t normalize);
2517:Drivers/CMSIS/DSP/Include/arm_math.h **** 
2518:Drivers/CMSIS/DSP/Include/arm_math.h **** 
2519:Drivers/CMSIS/DSP/Include/arm_math.h ****   /**
2520:Drivers/CMSIS/DSP/Include/arm_math.h ****    * @brief Processing function for the Q15 DCT4/IDCT4.
2521:Drivers/CMSIS/DSP/Include/arm_math.h ****    * @param[in]     S              points to an instance of the Q15 DCT4 structure.
2522:Drivers/CMSIS/DSP/Include/arm_math.h ****    * @param[in]     pState         points to state buffer.
2523:Drivers/CMSIS/DSP/Include/arm_math.h ****    * @param[in,out] pInlineBuffer  points to the in-place input and output buffer.
2524:Drivers/CMSIS/DSP/Include/arm_math.h ****    */
2525:Drivers/CMSIS/DSP/Include/arm_math.h ****   void arm_dct4_q15(
2526:Drivers/CMSIS/DSP/Include/arm_math.h ****   const arm_dct4_instance_q15 * S,
2527:Drivers/CMSIS/DSP/Include/arm_math.h ****         q15_t * pState,
2528:Drivers/CMSIS/DSP/Include/arm_math.h ****         q15_t * pInlineBuffer);
2529:Drivers/CMSIS/DSP/Include/arm_math.h **** 
2530:Drivers/CMSIS/DSP/Include/arm_math.h **** 
2531:Drivers/CMSIS/DSP/Include/arm_math.h ****   /**
2532:Drivers/CMSIS/DSP/Include/arm_math.h ****    * @brief Floating-point vector addition.
2533:Drivers/CMSIS/DSP/Include/arm_math.h ****    * @param[in]  pSrcA      points to the first input vector
2534:Drivers/CMSIS/DSP/Include/arm_math.h ****    * @param[in]  pSrcB      points to the second input vector
2535:Drivers/CMSIS/DSP/Include/arm_math.h ****    * @param[out] pDst       points to the output vector
2536:Drivers/CMSIS/DSP/Include/arm_math.h ****    * @param[in]  blockSize  number of samples in each vector
2537:Drivers/CMSIS/DSP/Include/arm_math.h ****    */
2538:Drivers/CMSIS/DSP/Include/arm_math.h ****   void arm_add_f32(
2539:Drivers/CMSIS/DSP/Include/arm_math.h ****   const float32_t * pSrcA,
2540:Drivers/CMSIS/DSP/Include/arm_math.h ****   const float32_t * pSrcB,
2541:Drivers/CMSIS/DSP/Include/arm_math.h ****         float32_t * pDst,
2542:Drivers/CMSIS/DSP/Include/arm_math.h ****         uint32_t blockSize);
2543:Drivers/CMSIS/DSP/Include/arm_math.h **** 
2544:Drivers/CMSIS/DSP/Include/arm_math.h **** 
2545:Drivers/CMSIS/DSP/Include/arm_math.h ****   /**
2546:Drivers/CMSIS/DSP/Include/arm_math.h ****    * @brief Q7 vector addition.
2547:Drivers/CMSIS/DSP/Include/arm_math.h ****    * @param[in]  pSrcA      points to the first input vector
2548:Drivers/CMSIS/DSP/Include/arm_math.h ****    * @param[in]  pSrcB      points to the second input vector
2549:Drivers/CMSIS/DSP/Include/arm_math.h ****    * @param[out] pDst       points to the output vector
2550:Drivers/CMSIS/DSP/Include/arm_math.h ****    * @param[in]  blockSize  number of samples in each vector
2551:Drivers/CMSIS/DSP/Include/arm_math.h ****    */
2552:Drivers/CMSIS/DSP/Include/arm_math.h ****   void arm_add_q7(
2553:Drivers/CMSIS/DSP/Include/arm_math.h ****   const q7_t * pSrcA,
2554:Drivers/CMSIS/DSP/Include/arm_math.h ****   const q7_t * pSrcB,
2555:Drivers/CMSIS/DSP/Include/arm_math.h ****         q7_t * pDst,
2556:Drivers/CMSIS/DSP/Include/arm_math.h ****         uint32_t blockSize);
2557:Drivers/CMSIS/DSP/Include/arm_math.h **** 
2558:Drivers/CMSIS/DSP/Include/arm_math.h **** 
2559:Drivers/CMSIS/DSP/Include/arm_math.h ****   /**
2560:Drivers/CMSIS/DSP/Include/arm_math.h ****    * @brief Q15 vector addition.
2561:Drivers/CMSIS/DSP/Include/arm_math.h ****    * @param[in]  pSrcA      points to the first input vector
ARM GAS  C:\Users\Joknem\AppData\Local\Temp\ccvCWXA9.s 			page 50


2562:Drivers/CMSIS/DSP/Include/arm_math.h ****    * @param[in]  pSrcB      points to the second input vector
2563:Drivers/CMSIS/DSP/Include/arm_math.h ****    * @param[out] pDst       points to the output vector
2564:Drivers/CMSIS/DSP/Include/arm_math.h ****    * @param[in]  blockSize  number of samples in each vector
2565:Drivers/CMSIS/DSP/Include/arm_math.h ****    */
2566:Drivers/CMSIS/DSP/Include/arm_math.h ****   void arm_add_q15(
2567:Drivers/CMSIS/DSP/Include/arm_math.h ****   const q15_t * pSrcA,
2568:Drivers/CMSIS/DSP/Include/arm_math.h ****   const q15_t * pSrcB,
2569:Drivers/CMSIS/DSP/Include/arm_math.h ****         q15_t * pDst,
2570:Drivers/CMSIS/DSP/Include/arm_math.h ****         uint32_t blockSize);
2571:Drivers/CMSIS/DSP/Include/arm_math.h **** 
2572:Drivers/CMSIS/DSP/Include/arm_math.h **** 
2573:Drivers/CMSIS/DSP/Include/arm_math.h ****   /**
2574:Drivers/CMSIS/DSP/Include/arm_math.h ****    * @brief Q31 vector addition.
2575:Drivers/CMSIS/DSP/Include/arm_math.h ****    * @param[in]  pSrcA      points to the first input vector
2576:Drivers/CMSIS/DSP/Include/arm_math.h ****    * @param[in]  pSrcB      points to the second input vector
2577:Drivers/CMSIS/DSP/Include/arm_math.h ****    * @param[out] pDst       points to the output vector
2578:Drivers/CMSIS/DSP/Include/arm_math.h ****    * @param[in]  blockSize  number of samples in each vector
2579:Drivers/CMSIS/DSP/Include/arm_math.h ****    */
2580:Drivers/CMSIS/DSP/Include/arm_math.h ****   void arm_add_q31(
2581:Drivers/CMSIS/DSP/Include/arm_math.h ****   const q31_t * pSrcA,
2582:Drivers/CMSIS/DSP/Include/arm_math.h ****   const q31_t * pSrcB,
2583:Drivers/CMSIS/DSP/Include/arm_math.h ****         q31_t * pDst,
2584:Drivers/CMSIS/DSP/Include/arm_math.h ****         uint32_t blockSize);
2585:Drivers/CMSIS/DSP/Include/arm_math.h **** 
2586:Drivers/CMSIS/DSP/Include/arm_math.h **** 
2587:Drivers/CMSIS/DSP/Include/arm_math.h ****   /**
2588:Drivers/CMSIS/DSP/Include/arm_math.h ****    * @brief Floating-point vector subtraction.
2589:Drivers/CMSIS/DSP/Include/arm_math.h ****    * @param[in]  pSrcA      points to the first input vector
2590:Drivers/CMSIS/DSP/Include/arm_math.h ****    * @param[in]  pSrcB      points to the second input vector
2591:Drivers/CMSIS/DSP/Include/arm_math.h ****    * @param[out] pDst       points to the output vector
2592:Drivers/CMSIS/DSP/Include/arm_math.h ****    * @param[in]  blockSize  number of samples in each vector
2593:Drivers/CMSIS/DSP/Include/arm_math.h ****    */
2594:Drivers/CMSIS/DSP/Include/arm_math.h ****   void arm_sub_f32(
2595:Drivers/CMSIS/DSP/Include/arm_math.h ****   const float32_t * pSrcA,
2596:Drivers/CMSIS/DSP/Include/arm_math.h ****   const float32_t * pSrcB,
2597:Drivers/CMSIS/DSP/Include/arm_math.h ****         float32_t * pDst,
2598:Drivers/CMSIS/DSP/Include/arm_math.h ****         uint32_t blockSize);
2599:Drivers/CMSIS/DSP/Include/arm_math.h **** 
2600:Drivers/CMSIS/DSP/Include/arm_math.h **** 
2601:Drivers/CMSIS/DSP/Include/arm_math.h ****   /**
2602:Drivers/CMSIS/DSP/Include/arm_math.h ****    * @brief Q7 vector subtraction.
2603:Drivers/CMSIS/DSP/Include/arm_math.h ****    * @param[in]  pSrcA      points to the first input vector
2604:Drivers/CMSIS/DSP/Include/arm_math.h ****    * @param[in]  pSrcB      points to the second input vector
2605:Drivers/CMSIS/DSP/Include/arm_math.h ****    * @param[out] pDst       points to the output vector
2606:Drivers/CMSIS/DSP/Include/arm_math.h ****    * @param[in]  blockSize  number of samples in each vector
2607:Drivers/CMSIS/DSP/Include/arm_math.h ****    */
2608:Drivers/CMSIS/DSP/Include/arm_math.h ****   void arm_sub_q7(
2609:Drivers/CMSIS/DSP/Include/arm_math.h ****   const q7_t * pSrcA,
2610:Drivers/CMSIS/DSP/Include/arm_math.h ****   const q7_t * pSrcB,
2611:Drivers/CMSIS/DSP/Include/arm_math.h ****         q7_t * pDst,
2612:Drivers/CMSIS/DSP/Include/arm_math.h ****         uint32_t blockSize);
2613:Drivers/CMSIS/DSP/Include/arm_math.h **** 
2614:Drivers/CMSIS/DSP/Include/arm_math.h **** 
2615:Drivers/CMSIS/DSP/Include/arm_math.h ****   /**
2616:Drivers/CMSIS/DSP/Include/arm_math.h ****    * @brief Q15 vector subtraction.
2617:Drivers/CMSIS/DSP/Include/arm_math.h ****    * @param[in]  pSrcA      points to the first input vector
2618:Drivers/CMSIS/DSP/Include/arm_math.h ****    * @param[in]  pSrcB      points to the second input vector
ARM GAS  C:\Users\Joknem\AppData\Local\Temp\ccvCWXA9.s 			page 51


2619:Drivers/CMSIS/DSP/Include/arm_math.h ****    * @param[out] pDst       points to the output vector
2620:Drivers/CMSIS/DSP/Include/arm_math.h ****    * @param[in]  blockSize  number of samples in each vector
2621:Drivers/CMSIS/DSP/Include/arm_math.h ****    */
2622:Drivers/CMSIS/DSP/Include/arm_math.h ****   void arm_sub_q15(
2623:Drivers/CMSIS/DSP/Include/arm_math.h ****   const q15_t * pSrcA,
2624:Drivers/CMSIS/DSP/Include/arm_math.h ****   const q15_t * pSrcB,
2625:Drivers/CMSIS/DSP/Include/arm_math.h ****         q15_t * pDst,
2626:Drivers/CMSIS/DSP/Include/arm_math.h ****         uint32_t blockSize);
2627:Drivers/CMSIS/DSP/Include/arm_math.h **** 
2628:Drivers/CMSIS/DSP/Include/arm_math.h **** 
2629:Drivers/CMSIS/DSP/Include/arm_math.h ****   /**
2630:Drivers/CMSIS/DSP/Include/arm_math.h ****    * @brief Q31 vector subtraction.
2631:Drivers/CMSIS/DSP/Include/arm_math.h ****    * @param[in]  pSrcA      points to the first input vector
2632:Drivers/CMSIS/DSP/Include/arm_math.h ****    * @param[in]  pSrcB      points to the second input vector
2633:Drivers/CMSIS/DSP/Include/arm_math.h ****    * @param[out] pDst       points to the output vector
2634:Drivers/CMSIS/DSP/Include/arm_math.h ****    * @param[in]  blockSize  number of samples in each vector
2635:Drivers/CMSIS/DSP/Include/arm_math.h ****    */
2636:Drivers/CMSIS/DSP/Include/arm_math.h ****   void arm_sub_q31(
2637:Drivers/CMSIS/DSP/Include/arm_math.h ****   const q31_t * pSrcA,
2638:Drivers/CMSIS/DSP/Include/arm_math.h ****   const q31_t * pSrcB,
2639:Drivers/CMSIS/DSP/Include/arm_math.h ****         q31_t * pDst,
2640:Drivers/CMSIS/DSP/Include/arm_math.h ****         uint32_t blockSize);
2641:Drivers/CMSIS/DSP/Include/arm_math.h **** 
2642:Drivers/CMSIS/DSP/Include/arm_math.h **** 
2643:Drivers/CMSIS/DSP/Include/arm_math.h ****   /**
2644:Drivers/CMSIS/DSP/Include/arm_math.h ****    * @brief Multiplies a floating-point vector by a scalar.
2645:Drivers/CMSIS/DSP/Include/arm_math.h ****    * @param[in]  pSrc       points to the input vector
2646:Drivers/CMSIS/DSP/Include/arm_math.h ****    * @param[in]  scale      scale factor to be applied
2647:Drivers/CMSIS/DSP/Include/arm_math.h ****    * @param[out] pDst       points to the output vector
2648:Drivers/CMSIS/DSP/Include/arm_math.h ****    * @param[in]  blockSize  number of samples in the vector
2649:Drivers/CMSIS/DSP/Include/arm_math.h ****    */
2650:Drivers/CMSIS/DSP/Include/arm_math.h ****   void arm_scale_f32(
2651:Drivers/CMSIS/DSP/Include/arm_math.h ****   const float32_t * pSrc,
2652:Drivers/CMSIS/DSP/Include/arm_math.h ****         float32_t scale,
2653:Drivers/CMSIS/DSP/Include/arm_math.h ****         float32_t * pDst,
2654:Drivers/CMSIS/DSP/Include/arm_math.h ****         uint32_t blockSize);
2655:Drivers/CMSIS/DSP/Include/arm_math.h **** 
2656:Drivers/CMSIS/DSP/Include/arm_math.h **** 
2657:Drivers/CMSIS/DSP/Include/arm_math.h ****   /**
2658:Drivers/CMSIS/DSP/Include/arm_math.h ****    * @brief Multiplies a Q7 vector by a scalar.
2659:Drivers/CMSIS/DSP/Include/arm_math.h ****    * @param[in]  pSrc        points to the input vector
2660:Drivers/CMSIS/DSP/Include/arm_math.h ****    * @param[in]  scaleFract  fractional portion of the scale value
2661:Drivers/CMSIS/DSP/Include/arm_math.h ****    * @param[in]  shift       number of bits to shift the result by
2662:Drivers/CMSIS/DSP/Include/arm_math.h ****    * @param[out] pDst        points to the output vector
2663:Drivers/CMSIS/DSP/Include/arm_math.h ****    * @param[in]  blockSize   number of samples in the vector
2664:Drivers/CMSIS/DSP/Include/arm_math.h ****    */
2665:Drivers/CMSIS/DSP/Include/arm_math.h ****   void arm_scale_q7(
2666:Drivers/CMSIS/DSP/Include/arm_math.h ****   const q7_t * pSrc,
2667:Drivers/CMSIS/DSP/Include/arm_math.h ****         q7_t scaleFract,
2668:Drivers/CMSIS/DSP/Include/arm_math.h ****         int8_t shift,
2669:Drivers/CMSIS/DSP/Include/arm_math.h ****         q7_t * pDst,
2670:Drivers/CMSIS/DSP/Include/arm_math.h ****         uint32_t blockSize);
2671:Drivers/CMSIS/DSP/Include/arm_math.h **** 
2672:Drivers/CMSIS/DSP/Include/arm_math.h **** 
2673:Drivers/CMSIS/DSP/Include/arm_math.h ****   /**
2674:Drivers/CMSIS/DSP/Include/arm_math.h ****    * @brief Multiplies a Q15 vector by a scalar.
2675:Drivers/CMSIS/DSP/Include/arm_math.h ****    * @param[in]  pSrc        points to the input vector
ARM GAS  C:\Users\Joknem\AppData\Local\Temp\ccvCWXA9.s 			page 52


2676:Drivers/CMSIS/DSP/Include/arm_math.h ****    * @param[in]  scaleFract  fractional portion of the scale value
2677:Drivers/CMSIS/DSP/Include/arm_math.h ****    * @param[in]  shift       number of bits to shift the result by
2678:Drivers/CMSIS/DSP/Include/arm_math.h ****    * @param[out] pDst        points to the output vector
2679:Drivers/CMSIS/DSP/Include/arm_math.h ****    * @param[in]  blockSize   number of samples in the vector
2680:Drivers/CMSIS/DSP/Include/arm_math.h ****    */
2681:Drivers/CMSIS/DSP/Include/arm_math.h ****   void arm_scale_q15(
2682:Drivers/CMSIS/DSP/Include/arm_math.h ****   const q15_t * pSrc,
2683:Drivers/CMSIS/DSP/Include/arm_math.h ****         q15_t scaleFract,
2684:Drivers/CMSIS/DSP/Include/arm_math.h ****         int8_t shift,
2685:Drivers/CMSIS/DSP/Include/arm_math.h ****         q15_t * pDst,
2686:Drivers/CMSIS/DSP/Include/arm_math.h ****         uint32_t blockSize);
2687:Drivers/CMSIS/DSP/Include/arm_math.h **** 
2688:Drivers/CMSIS/DSP/Include/arm_math.h **** 
2689:Drivers/CMSIS/DSP/Include/arm_math.h ****   /**
2690:Drivers/CMSIS/DSP/Include/arm_math.h ****    * @brief Multiplies a Q31 vector by a scalar.
2691:Drivers/CMSIS/DSP/Include/arm_math.h ****    * @param[in]  pSrc        points to the input vector
2692:Drivers/CMSIS/DSP/Include/arm_math.h ****    * @param[in]  scaleFract  fractional portion of the scale value
2693:Drivers/CMSIS/DSP/Include/arm_math.h ****    * @param[in]  shift       number of bits to shift the result by
2694:Drivers/CMSIS/DSP/Include/arm_math.h ****    * @param[out] pDst        points to the output vector
2695:Drivers/CMSIS/DSP/Include/arm_math.h ****    * @param[in]  blockSize   number of samples in the vector
2696:Drivers/CMSIS/DSP/Include/arm_math.h ****    */
2697:Drivers/CMSIS/DSP/Include/arm_math.h ****   void arm_scale_q31(
2698:Drivers/CMSIS/DSP/Include/arm_math.h ****   const q31_t * pSrc,
2699:Drivers/CMSIS/DSP/Include/arm_math.h ****         q31_t scaleFract,
2700:Drivers/CMSIS/DSP/Include/arm_math.h ****         int8_t shift,
2701:Drivers/CMSIS/DSP/Include/arm_math.h ****         q31_t * pDst,
2702:Drivers/CMSIS/DSP/Include/arm_math.h ****         uint32_t blockSize);
2703:Drivers/CMSIS/DSP/Include/arm_math.h **** 
2704:Drivers/CMSIS/DSP/Include/arm_math.h **** 
2705:Drivers/CMSIS/DSP/Include/arm_math.h ****   /**
2706:Drivers/CMSIS/DSP/Include/arm_math.h ****    * @brief Q7 vector absolute value.
2707:Drivers/CMSIS/DSP/Include/arm_math.h ****    * @param[in]  pSrc       points to the input buffer
2708:Drivers/CMSIS/DSP/Include/arm_math.h ****    * @param[out] pDst       points to the output buffer
2709:Drivers/CMSIS/DSP/Include/arm_math.h ****    * @param[in]  blockSize  number of samples in each vector
2710:Drivers/CMSIS/DSP/Include/arm_math.h ****    */
2711:Drivers/CMSIS/DSP/Include/arm_math.h ****   void arm_abs_q7(
2712:Drivers/CMSIS/DSP/Include/arm_math.h ****   const q7_t * pSrc,
2713:Drivers/CMSIS/DSP/Include/arm_math.h ****         q7_t * pDst,
2714:Drivers/CMSIS/DSP/Include/arm_math.h ****         uint32_t blockSize);
2715:Drivers/CMSIS/DSP/Include/arm_math.h **** 
2716:Drivers/CMSIS/DSP/Include/arm_math.h **** 
2717:Drivers/CMSIS/DSP/Include/arm_math.h ****   /**
2718:Drivers/CMSIS/DSP/Include/arm_math.h ****    * @brief Floating-point vector absolute value.
2719:Drivers/CMSIS/DSP/Include/arm_math.h ****    * @param[in]  pSrc       points to the input buffer
2720:Drivers/CMSIS/DSP/Include/arm_math.h ****    * @param[out] pDst       points to the output buffer
2721:Drivers/CMSIS/DSP/Include/arm_math.h ****    * @param[in]  blockSize  number of samples in each vector
2722:Drivers/CMSIS/DSP/Include/arm_math.h ****    */
2723:Drivers/CMSIS/DSP/Include/arm_math.h ****   void arm_abs_f32(
2724:Drivers/CMSIS/DSP/Include/arm_math.h ****   const float32_t * pSrc,
2725:Drivers/CMSIS/DSP/Include/arm_math.h ****         float32_t * pDst,
2726:Drivers/CMSIS/DSP/Include/arm_math.h ****         uint32_t blockSize);
2727:Drivers/CMSIS/DSP/Include/arm_math.h **** 
2728:Drivers/CMSIS/DSP/Include/arm_math.h **** 
2729:Drivers/CMSIS/DSP/Include/arm_math.h ****   /**
2730:Drivers/CMSIS/DSP/Include/arm_math.h ****    * @brief Q15 vector absolute value.
2731:Drivers/CMSIS/DSP/Include/arm_math.h ****    * @param[in]  pSrc       points to the input buffer
2732:Drivers/CMSIS/DSP/Include/arm_math.h ****    * @param[out] pDst       points to the output buffer
ARM GAS  C:\Users\Joknem\AppData\Local\Temp\ccvCWXA9.s 			page 53


2733:Drivers/CMSIS/DSP/Include/arm_math.h ****    * @param[in]  blockSize  number of samples in each vector
2734:Drivers/CMSIS/DSP/Include/arm_math.h ****    */
2735:Drivers/CMSIS/DSP/Include/arm_math.h ****   void arm_abs_q15(
2736:Drivers/CMSIS/DSP/Include/arm_math.h ****   const q15_t * pSrc,
2737:Drivers/CMSIS/DSP/Include/arm_math.h ****         q15_t * pDst,
2738:Drivers/CMSIS/DSP/Include/arm_math.h ****         uint32_t blockSize);
2739:Drivers/CMSIS/DSP/Include/arm_math.h **** 
2740:Drivers/CMSIS/DSP/Include/arm_math.h **** 
2741:Drivers/CMSIS/DSP/Include/arm_math.h ****   /**
2742:Drivers/CMSIS/DSP/Include/arm_math.h ****    * @brief Q31 vector absolute value.
2743:Drivers/CMSIS/DSP/Include/arm_math.h ****    * @param[in]  pSrc       points to the input buffer
2744:Drivers/CMSIS/DSP/Include/arm_math.h ****    * @param[out] pDst       points to the output buffer
2745:Drivers/CMSIS/DSP/Include/arm_math.h ****    * @param[in]  blockSize  number of samples in each vector
2746:Drivers/CMSIS/DSP/Include/arm_math.h ****    */
2747:Drivers/CMSIS/DSP/Include/arm_math.h ****   void arm_abs_q31(
2748:Drivers/CMSIS/DSP/Include/arm_math.h ****   const q31_t * pSrc,
2749:Drivers/CMSIS/DSP/Include/arm_math.h ****         q31_t * pDst,
2750:Drivers/CMSIS/DSP/Include/arm_math.h ****         uint32_t blockSize);
2751:Drivers/CMSIS/DSP/Include/arm_math.h **** 
2752:Drivers/CMSIS/DSP/Include/arm_math.h **** 
2753:Drivers/CMSIS/DSP/Include/arm_math.h ****   /**
2754:Drivers/CMSIS/DSP/Include/arm_math.h ****    * @brief Dot product of floating-point vectors.
2755:Drivers/CMSIS/DSP/Include/arm_math.h ****    * @param[in]  pSrcA      points to the first input vector
2756:Drivers/CMSIS/DSP/Include/arm_math.h ****    * @param[in]  pSrcB      points to the second input vector
2757:Drivers/CMSIS/DSP/Include/arm_math.h ****    * @param[in]  blockSize  number of samples in each vector
2758:Drivers/CMSIS/DSP/Include/arm_math.h ****    * @param[out] result     output result returned here
2759:Drivers/CMSIS/DSP/Include/arm_math.h ****    */
2760:Drivers/CMSIS/DSP/Include/arm_math.h ****   void arm_dot_prod_f32(
2761:Drivers/CMSIS/DSP/Include/arm_math.h ****   const float32_t * pSrcA,
2762:Drivers/CMSIS/DSP/Include/arm_math.h ****   const float32_t * pSrcB,
2763:Drivers/CMSIS/DSP/Include/arm_math.h ****         uint32_t blockSize,
2764:Drivers/CMSIS/DSP/Include/arm_math.h ****         float32_t * result);
2765:Drivers/CMSIS/DSP/Include/arm_math.h **** 
2766:Drivers/CMSIS/DSP/Include/arm_math.h **** 
2767:Drivers/CMSIS/DSP/Include/arm_math.h ****   /**
2768:Drivers/CMSIS/DSP/Include/arm_math.h ****    * @brief Dot product of Q7 vectors.
2769:Drivers/CMSIS/DSP/Include/arm_math.h ****    * @param[in]  pSrcA      points to the first input vector
2770:Drivers/CMSIS/DSP/Include/arm_math.h ****    * @param[in]  pSrcB      points to the second input vector
2771:Drivers/CMSIS/DSP/Include/arm_math.h ****    * @param[in]  blockSize  number of samples in each vector
2772:Drivers/CMSIS/DSP/Include/arm_math.h ****    * @param[out] result     output result returned here
2773:Drivers/CMSIS/DSP/Include/arm_math.h ****    */
2774:Drivers/CMSIS/DSP/Include/arm_math.h ****   void arm_dot_prod_q7(
2775:Drivers/CMSIS/DSP/Include/arm_math.h ****   const q7_t * pSrcA,
2776:Drivers/CMSIS/DSP/Include/arm_math.h ****   const q7_t * pSrcB,
2777:Drivers/CMSIS/DSP/Include/arm_math.h ****         uint32_t blockSize,
2778:Drivers/CMSIS/DSP/Include/arm_math.h ****         q31_t * result);
2779:Drivers/CMSIS/DSP/Include/arm_math.h **** 
2780:Drivers/CMSIS/DSP/Include/arm_math.h **** 
2781:Drivers/CMSIS/DSP/Include/arm_math.h ****   /**
2782:Drivers/CMSIS/DSP/Include/arm_math.h ****    * @brief Dot product of Q15 vectors.
2783:Drivers/CMSIS/DSP/Include/arm_math.h ****    * @param[in]  pSrcA      points to the first input vector
2784:Drivers/CMSIS/DSP/Include/arm_math.h ****    * @param[in]  pSrcB      points to the second input vector
2785:Drivers/CMSIS/DSP/Include/arm_math.h ****    * @param[in]  blockSize  number of samples in each vector
2786:Drivers/CMSIS/DSP/Include/arm_math.h ****    * @param[out] result     output result returned here
2787:Drivers/CMSIS/DSP/Include/arm_math.h ****    */
2788:Drivers/CMSIS/DSP/Include/arm_math.h ****   void arm_dot_prod_q15(
2789:Drivers/CMSIS/DSP/Include/arm_math.h ****   const q15_t * pSrcA,
ARM GAS  C:\Users\Joknem\AppData\Local\Temp\ccvCWXA9.s 			page 54


2790:Drivers/CMSIS/DSP/Include/arm_math.h ****   const q15_t * pSrcB,
2791:Drivers/CMSIS/DSP/Include/arm_math.h ****         uint32_t blockSize,
2792:Drivers/CMSIS/DSP/Include/arm_math.h ****         q63_t * result);
2793:Drivers/CMSIS/DSP/Include/arm_math.h **** 
2794:Drivers/CMSIS/DSP/Include/arm_math.h **** 
2795:Drivers/CMSIS/DSP/Include/arm_math.h ****   /**
2796:Drivers/CMSIS/DSP/Include/arm_math.h ****    * @brief Dot product of Q31 vectors.
2797:Drivers/CMSIS/DSP/Include/arm_math.h ****    * @param[in]  pSrcA      points to the first input vector
2798:Drivers/CMSIS/DSP/Include/arm_math.h ****    * @param[in]  pSrcB      points to the second input vector
2799:Drivers/CMSIS/DSP/Include/arm_math.h ****    * @param[in]  blockSize  number of samples in each vector
2800:Drivers/CMSIS/DSP/Include/arm_math.h ****    * @param[out] result     output result returned here
2801:Drivers/CMSIS/DSP/Include/arm_math.h ****    */
2802:Drivers/CMSIS/DSP/Include/arm_math.h ****   void arm_dot_prod_q31(
2803:Drivers/CMSIS/DSP/Include/arm_math.h ****   const q31_t * pSrcA,
2804:Drivers/CMSIS/DSP/Include/arm_math.h ****   const q31_t * pSrcB,
2805:Drivers/CMSIS/DSP/Include/arm_math.h ****         uint32_t blockSize,
2806:Drivers/CMSIS/DSP/Include/arm_math.h ****         q63_t * result);
2807:Drivers/CMSIS/DSP/Include/arm_math.h **** 
2808:Drivers/CMSIS/DSP/Include/arm_math.h **** 
2809:Drivers/CMSIS/DSP/Include/arm_math.h ****   /**
2810:Drivers/CMSIS/DSP/Include/arm_math.h ****    * @brief  Shifts the elements of a Q7 vector a specified number of bits.
2811:Drivers/CMSIS/DSP/Include/arm_math.h ****    * @param[in]  pSrc       points to the input vector
2812:Drivers/CMSIS/DSP/Include/arm_math.h ****    * @param[in]  shiftBits  number of bits to shift.  A positive value shifts left; a negative valu
2813:Drivers/CMSIS/DSP/Include/arm_math.h ****    * @param[out] pDst       points to the output vector
2814:Drivers/CMSIS/DSP/Include/arm_math.h ****    * @param[in]  blockSize  number of samples in the vector
2815:Drivers/CMSIS/DSP/Include/arm_math.h ****    */
2816:Drivers/CMSIS/DSP/Include/arm_math.h ****   void arm_shift_q7(
2817:Drivers/CMSIS/DSP/Include/arm_math.h ****   const q7_t * pSrc,
2818:Drivers/CMSIS/DSP/Include/arm_math.h ****         int8_t shiftBits,
2819:Drivers/CMSIS/DSP/Include/arm_math.h ****         q7_t * pDst,
2820:Drivers/CMSIS/DSP/Include/arm_math.h ****         uint32_t blockSize);
2821:Drivers/CMSIS/DSP/Include/arm_math.h **** 
2822:Drivers/CMSIS/DSP/Include/arm_math.h **** 
2823:Drivers/CMSIS/DSP/Include/arm_math.h ****   /**
2824:Drivers/CMSIS/DSP/Include/arm_math.h ****    * @brief  Shifts the elements of a Q15 vector a specified number of bits.
2825:Drivers/CMSIS/DSP/Include/arm_math.h ****    * @param[in]  pSrc       points to the input vector
2826:Drivers/CMSIS/DSP/Include/arm_math.h ****    * @param[in]  shiftBits  number of bits to shift.  A positive value shifts left; a negative valu
2827:Drivers/CMSIS/DSP/Include/arm_math.h ****    * @param[out] pDst       points to the output vector
2828:Drivers/CMSIS/DSP/Include/arm_math.h ****    * @param[in]  blockSize  number of samples in the vector
2829:Drivers/CMSIS/DSP/Include/arm_math.h ****    */
2830:Drivers/CMSIS/DSP/Include/arm_math.h ****   void arm_shift_q15(
2831:Drivers/CMSIS/DSP/Include/arm_math.h ****   const q15_t * pSrc,
2832:Drivers/CMSIS/DSP/Include/arm_math.h ****         int8_t shiftBits,
2833:Drivers/CMSIS/DSP/Include/arm_math.h ****         q15_t * pDst,
2834:Drivers/CMSIS/DSP/Include/arm_math.h ****         uint32_t blockSize);
2835:Drivers/CMSIS/DSP/Include/arm_math.h **** 
2836:Drivers/CMSIS/DSP/Include/arm_math.h **** 
2837:Drivers/CMSIS/DSP/Include/arm_math.h ****   /**
2838:Drivers/CMSIS/DSP/Include/arm_math.h ****    * @brief  Shifts the elements of a Q31 vector a specified number of bits.
2839:Drivers/CMSIS/DSP/Include/arm_math.h ****    * @param[in]  pSrc       points to the input vector
2840:Drivers/CMSIS/DSP/Include/arm_math.h ****    * @param[in]  shiftBits  number of bits to shift.  A positive value shifts left; a negative valu
2841:Drivers/CMSIS/DSP/Include/arm_math.h ****    * @param[out] pDst       points to the output vector
2842:Drivers/CMSIS/DSP/Include/arm_math.h ****    * @param[in]  blockSize  number of samples in the vector
2843:Drivers/CMSIS/DSP/Include/arm_math.h ****    */
2844:Drivers/CMSIS/DSP/Include/arm_math.h ****   void arm_shift_q31(
2845:Drivers/CMSIS/DSP/Include/arm_math.h ****   const q31_t * pSrc,
2846:Drivers/CMSIS/DSP/Include/arm_math.h ****         int8_t shiftBits,
ARM GAS  C:\Users\Joknem\AppData\Local\Temp\ccvCWXA9.s 			page 55


2847:Drivers/CMSIS/DSP/Include/arm_math.h ****         q31_t * pDst,
2848:Drivers/CMSIS/DSP/Include/arm_math.h ****         uint32_t blockSize);
2849:Drivers/CMSIS/DSP/Include/arm_math.h **** 
2850:Drivers/CMSIS/DSP/Include/arm_math.h **** 
2851:Drivers/CMSIS/DSP/Include/arm_math.h ****   /**
2852:Drivers/CMSIS/DSP/Include/arm_math.h ****    * @brief  Adds a constant offset to a floating-point vector.
2853:Drivers/CMSIS/DSP/Include/arm_math.h ****    * @param[in]  pSrc       points to the input vector
2854:Drivers/CMSIS/DSP/Include/arm_math.h ****    * @param[in]  offset     is the offset to be added
2855:Drivers/CMSIS/DSP/Include/arm_math.h ****    * @param[out] pDst       points to the output vector
2856:Drivers/CMSIS/DSP/Include/arm_math.h ****    * @param[in]  blockSize  number of samples in the vector
2857:Drivers/CMSIS/DSP/Include/arm_math.h ****    */
2858:Drivers/CMSIS/DSP/Include/arm_math.h ****   void arm_offset_f32(
2859:Drivers/CMSIS/DSP/Include/arm_math.h ****   const float32_t * pSrc,
2860:Drivers/CMSIS/DSP/Include/arm_math.h ****         float32_t offset,
2861:Drivers/CMSIS/DSP/Include/arm_math.h ****         float32_t * pDst,
2862:Drivers/CMSIS/DSP/Include/arm_math.h ****         uint32_t blockSize);
2863:Drivers/CMSIS/DSP/Include/arm_math.h **** 
2864:Drivers/CMSIS/DSP/Include/arm_math.h **** 
2865:Drivers/CMSIS/DSP/Include/arm_math.h ****   /**
2866:Drivers/CMSIS/DSP/Include/arm_math.h ****    * @brief  Adds a constant offset to a Q7 vector.
2867:Drivers/CMSIS/DSP/Include/arm_math.h ****    * @param[in]  pSrc       points to the input vector
2868:Drivers/CMSIS/DSP/Include/arm_math.h ****    * @param[in]  offset     is the offset to be added
2869:Drivers/CMSIS/DSP/Include/arm_math.h ****    * @param[out] pDst       points to the output vector
2870:Drivers/CMSIS/DSP/Include/arm_math.h ****    * @param[in]  blockSize  number of samples in the vector
2871:Drivers/CMSIS/DSP/Include/arm_math.h ****    */
2872:Drivers/CMSIS/DSP/Include/arm_math.h ****   void arm_offset_q7(
2873:Drivers/CMSIS/DSP/Include/arm_math.h ****   const q7_t * pSrc,
2874:Drivers/CMSIS/DSP/Include/arm_math.h ****         q7_t offset,
2875:Drivers/CMSIS/DSP/Include/arm_math.h ****         q7_t * pDst,
2876:Drivers/CMSIS/DSP/Include/arm_math.h ****         uint32_t blockSize);
2877:Drivers/CMSIS/DSP/Include/arm_math.h **** 
2878:Drivers/CMSIS/DSP/Include/arm_math.h **** 
2879:Drivers/CMSIS/DSP/Include/arm_math.h ****   /**
2880:Drivers/CMSIS/DSP/Include/arm_math.h ****    * @brief  Adds a constant offset to a Q15 vector.
2881:Drivers/CMSIS/DSP/Include/arm_math.h ****    * @param[in]  pSrc       points to the input vector
2882:Drivers/CMSIS/DSP/Include/arm_math.h ****    * @param[in]  offset     is the offset to be added
2883:Drivers/CMSIS/DSP/Include/arm_math.h ****    * @param[out] pDst       points to the output vector
2884:Drivers/CMSIS/DSP/Include/arm_math.h ****    * @param[in]  blockSize  number of samples in the vector
2885:Drivers/CMSIS/DSP/Include/arm_math.h ****    */
2886:Drivers/CMSIS/DSP/Include/arm_math.h ****   void arm_offset_q15(
