ARM GAS  C:\Users\Joknem\AppData\Local\Temp\ccCFqtCX.s 			page 1


   1              		.cpu cortex-m7
   2              		.eabi_attribute 28, 1
   3              		.eabi_attribute 20, 1
   4              		.eabi_attribute 21, 1
   5              		.eabi_attribute 23, 3
   6              		.eabi_attribute 24, 1
   7              		.eabi_attribute 25, 1
   8              		.eabi_attribute 26, 1
   9              		.eabi_attribute 30, 1
  10              		.eabi_attribute 34, 1
  11              		.eabi_attribute 18, 4
  12              		.file	"usart.c"
  13              		.text
  14              	.Ltext0:
  15              		.cfi_sections	.debug_frame
  16              		.section	.text.MX_USART1_UART_Init,"ax",%progbits
  17              		.align	1
  18              		.global	MX_USART1_UART_Init
  19              		.arch armv7e-m
  20              		.syntax unified
  21              		.thumb
  22              		.thumb_func
  23              		.fpu fpv5-d16
  25              	MX_USART1_UART_Init:
  26              	.LFB185:
  27              		.file 1 "Core/Src/usart.c"
   1:Core/Src/usart.c **** /**
   2:Core/Src/usart.c ****   ******************************************************************************
   3:Core/Src/usart.c ****   * @file    usart.c
   4:Core/Src/usart.c ****   * @brief   This file provides code for the configuration
   5:Core/Src/usart.c ****   *          of the USART instances.
   6:Core/Src/usart.c ****   ******************************************************************************
   7:Core/Src/usart.c ****   * @attention
   8:Core/Src/usart.c ****   *
   9:Core/Src/usart.c ****   * <h2><center>&copy; Copyright (c) 2022 STMicroelectronics.
  10:Core/Src/usart.c ****   * All rights reserved.</center></h2>
  11:Core/Src/usart.c ****   *
  12:Core/Src/usart.c ****   * This software component is licensed by ST under Ultimate Liberty license
  13:Core/Src/usart.c ****   * SLA0044, the "License"; You may not use this file except in compliance with
  14:Core/Src/usart.c ****   * the License. You may obtain a copy of the License at:
  15:Core/Src/usart.c ****   *                             www.st.com/SLA0044
  16:Core/Src/usart.c ****   *
  17:Core/Src/usart.c ****   ******************************************************************************
  18:Core/Src/usart.c ****   */
  19:Core/Src/usart.c **** 
  20:Core/Src/usart.c **** /* Includes ------------------------------------------------------------------*/
  21:Core/Src/usart.c **** #include "usart.h"
  22:Core/Src/usart.c **** 
  23:Core/Src/usart.c **** /* USER CODE BEGIN 0 */
  24:Core/Src/usart.c **** 
  25:Core/Src/usart.c **** /* USER CODE END 0 */
  26:Core/Src/usart.c **** 
  27:Core/Src/usart.c **** UART_HandleTypeDef huart1;
  28:Core/Src/usart.c **** UART_HandleTypeDef huart6;
  29:Core/Src/usart.c **** 
  30:Core/Src/usart.c **** /* USART1 init function */
  31:Core/Src/usart.c **** 
ARM GAS  C:\Users\Joknem\AppData\Local\Temp\ccCFqtCX.s 			page 2


  32:Core/Src/usart.c **** void MX_USART1_UART_Init(void)
  33:Core/Src/usart.c **** {
  28              		.loc 1 33 1 view -0
  29              		.cfi_startproc
  30              		@ args = 0, pretend = 0, frame = 0
  31              		@ frame_needed = 0, uses_anonymous_args = 0
  32 0000 08B5     		push	{r3, lr}
  33              	.LCFI0:
  34              		.cfi_def_cfa_offset 8
  35              		.cfi_offset 3, -8
  36              		.cfi_offset 14, -4
  34:Core/Src/usart.c **** 
  35:Core/Src/usart.c ****   /* USER CODE BEGIN USART1_Init 0 */
  36:Core/Src/usart.c **** 
  37:Core/Src/usart.c ****   /* USER CODE END USART1_Init 0 */
  38:Core/Src/usart.c **** 
  39:Core/Src/usart.c ****   /* USER CODE BEGIN USART1_Init 1 */
  40:Core/Src/usart.c **** 
  41:Core/Src/usart.c ****   /* USER CODE END USART1_Init 1 */
  42:Core/Src/usart.c ****   huart1.Instance = USART1;
  37              		.loc 1 42 3 view .LVU1
  38              		.loc 1 42 19 is_stmt 0 view .LVU2
  39 0002 1748     		ldr	r0, .L11
  40 0004 174B     		ldr	r3, .L11+4
  41 0006 0360     		str	r3, [r0]
  43:Core/Src/usart.c ****   huart1.Init.BaudRate = 115200;
  42              		.loc 1 43 3 is_stmt 1 view .LVU3
  43              		.loc 1 43 24 is_stmt 0 view .LVU4
  44 0008 4FF4E133 		mov	r3, #115200
  45 000c 4360     		str	r3, [r0, #4]
  44:Core/Src/usart.c ****   huart1.Init.WordLength = UART_WORDLENGTH_8B;
  46              		.loc 1 44 3 is_stmt 1 view .LVU5
  47              		.loc 1 44 26 is_stmt 0 view .LVU6
  48 000e 0023     		movs	r3, #0
  49 0010 8360     		str	r3, [r0, #8]
  45:Core/Src/usart.c ****   huart1.Init.StopBits = UART_STOPBITS_1;
  50              		.loc 1 45 3 is_stmt 1 view .LVU7
  51              		.loc 1 45 24 is_stmt 0 view .LVU8
  52 0012 C360     		str	r3, [r0, #12]
  46:Core/Src/usart.c ****   huart1.Init.Parity = UART_PARITY_NONE;
  53              		.loc 1 46 3 is_stmt 1 view .LVU9
  54              		.loc 1 46 22 is_stmt 0 view .LVU10
  55 0014 0361     		str	r3, [r0, #16]
  47:Core/Src/usart.c ****   huart1.Init.Mode = UART_MODE_TX_RX;
  56              		.loc 1 47 3 is_stmt 1 view .LVU11
  57              		.loc 1 47 20 is_stmt 0 view .LVU12
  58 0016 0C22     		movs	r2, #12
  59 0018 4261     		str	r2, [r0, #20]
  48:Core/Src/usart.c ****   huart1.Init.HwFlowCtl = UART_HWCONTROL_NONE;
  60              		.loc 1 48 3 is_stmt 1 view .LVU13
  61              		.loc 1 48 25 is_stmt 0 view .LVU14
  62 001a 8361     		str	r3, [r0, #24]
  49:Core/Src/usart.c ****   huart1.Init.OverSampling = UART_OVERSAMPLING_16;
  63              		.loc 1 49 3 is_stmt 1 view .LVU15
  64              		.loc 1 49 28 is_stmt 0 view .LVU16
  65 001c C361     		str	r3, [r0, #28]
  50:Core/Src/usart.c ****   huart1.Init.OneBitSampling = UART_ONE_BIT_SAMPLE_DISABLE;
ARM GAS  C:\Users\Joknem\AppData\Local\Temp\ccCFqtCX.s 			page 3


  66              		.loc 1 50 3 is_stmt 1 view .LVU17
  67              		.loc 1 50 30 is_stmt 0 view .LVU18
  68 001e 0362     		str	r3, [r0, #32]
  51:Core/Src/usart.c ****   huart1.Init.ClockPrescaler = UART_PRESCALER_DIV1;
  69              		.loc 1 51 3 is_stmt 1 view .LVU19
  70              		.loc 1 51 30 is_stmt 0 view .LVU20
  71 0020 4362     		str	r3, [r0, #36]
  52:Core/Src/usart.c ****   huart1.AdvancedInit.AdvFeatureInit = UART_ADVFEATURE_NO_INIT;
  72              		.loc 1 52 3 is_stmt 1 view .LVU21
  73              		.loc 1 52 38 is_stmt 0 view .LVU22
  74 0022 8362     		str	r3, [r0, #40]
  53:Core/Src/usart.c ****   if (HAL_UART_Init(&huart1) != HAL_OK)
  75              		.loc 1 53 3 is_stmt 1 view .LVU23
  76              		.loc 1 53 7 is_stmt 0 view .LVU24
  77 0024 FFF7FEFF 		bl	HAL_UART_Init
  78              	.LVL0:
  79              		.loc 1 53 6 view .LVU25
  80 0028 70B9     		cbnz	r0, .L7
  81              	.L2:
  54:Core/Src/usart.c ****   {
  55:Core/Src/usart.c ****     Error_Handler();
  56:Core/Src/usart.c ****   }
  57:Core/Src/usart.c ****   if (HAL_UARTEx_SetTxFifoThreshold(&huart1, UART_TXFIFO_THRESHOLD_1_8) != HAL_OK)
  82              		.loc 1 57 3 is_stmt 1 view .LVU26
  83              		.loc 1 57 7 is_stmt 0 view .LVU27
  84 002a 0021     		movs	r1, #0
  85 002c 0C48     		ldr	r0, .L11
  86 002e FFF7FEFF 		bl	HAL_UARTEx_SetTxFifoThreshold
  87              	.LVL1:
  88              		.loc 1 57 6 view .LVU28
  89 0032 60B9     		cbnz	r0, .L8
  90              	.L3:
  58:Core/Src/usart.c ****   {
  59:Core/Src/usart.c ****     Error_Handler();
  60:Core/Src/usart.c ****   }
  61:Core/Src/usart.c ****   if (HAL_UARTEx_SetRxFifoThreshold(&huart1, UART_RXFIFO_THRESHOLD_1_8) != HAL_OK)
  91              		.loc 1 61 3 is_stmt 1 view .LVU29
  92              		.loc 1 61 7 is_stmt 0 view .LVU30
  93 0034 0021     		movs	r1, #0
  94 0036 0A48     		ldr	r0, .L11
  95 0038 FFF7FEFF 		bl	HAL_UARTEx_SetRxFifoThreshold
  96              	.LVL2:
  97              		.loc 1 61 6 view .LVU31
  98 003c 50B9     		cbnz	r0, .L9
  99              	.L4:
  62:Core/Src/usart.c ****   {
  63:Core/Src/usart.c ****     Error_Handler();
  64:Core/Src/usart.c ****   }
  65:Core/Src/usart.c ****   if (HAL_UARTEx_DisableFifoMode(&huart1) != HAL_OK)
 100              		.loc 1 65 3 is_stmt 1 view .LVU32
 101              		.loc 1 65 7 is_stmt 0 view .LVU33
 102 003e 0848     		ldr	r0, .L11
 103 0040 FFF7FEFF 		bl	HAL_UARTEx_DisableFifoMode
 104              	.LVL3:
 105              		.loc 1 65 6 view .LVU34
 106 0044 48B9     		cbnz	r0, .L10
 107              	.L1:
ARM GAS  C:\Users\Joknem\AppData\Local\Temp\ccCFqtCX.s 			page 4


  66:Core/Src/usart.c ****   {
  67:Core/Src/usart.c ****     Error_Handler();
  68:Core/Src/usart.c ****   }
  69:Core/Src/usart.c ****   /* USER CODE BEGIN USART1_Init 2 */
  70:Core/Src/usart.c **** 
  71:Core/Src/usart.c ****   /* USER CODE END USART1_Init 2 */
  72:Core/Src/usart.c **** 
  73:Core/Src/usart.c **** }
 108              		.loc 1 73 1 view .LVU35
 109 0046 08BD     		pop	{r3, pc}
 110              	.L7:
  55:Core/Src/usart.c ****   }
 111              		.loc 1 55 5 is_stmt 1 view .LVU36
 112 0048 FFF7FEFF 		bl	Error_Handler
 113              	.LVL4:
 114 004c EDE7     		b	.L2
 115              	.L8:
  59:Core/Src/usart.c ****   }
 116              		.loc 1 59 5 view .LVU37
 117 004e FFF7FEFF 		bl	Error_Handler
 118              	.LVL5:
 119 0052 EFE7     		b	.L3
 120              	.L9:
  63:Core/Src/usart.c ****   }
 121              		.loc 1 63 5 view .LVU38
 122 0054 FFF7FEFF 		bl	Error_Handler
 123              	.LVL6:
 124 0058 F1E7     		b	.L4
 125              	.L10:
  67:Core/Src/usart.c ****   }
 126              		.loc 1 67 5 view .LVU39
 127 005a FFF7FEFF 		bl	Error_Handler
 128              	.LVL7:
 129              		.loc 1 73 1 is_stmt 0 view .LVU40
 130 005e F2E7     		b	.L1
 131              	.L12:
 132              		.align	2
 133              	.L11:
 134 0060 00000000 		.word	.LANCHOR0
 135 0064 00100140 		.word	1073811456
 136              		.cfi_endproc
 137              	.LFE185:
 139              		.section	.text.MX_USART6_UART_Init,"ax",%progbits
 140              		.align	1
 141              		.global	MX_USART6_UART_Init
 142              		.syntax unified
 143              		.thumb
 144              		.thumb_func
 145              		.fpu fpv5-d16
 147              	MX_USART6_UART_Init:
 148              	.LFB186:
  74:Core/Src/usart.c **** /* USART6 init function */
  75:Core/Src/usart.c **** 
  76:Core/Src/usart.c **** void MX_USART6_UART_Init(void)
  77:Core/Src/usart.c **** {
 149              		.loc 1 77 1 is_stmt 1 view -0
 150              		.cfi_startproc
ARM GAS  C:\Users\Joknem\AppData\Local\Temp\ccCFqtCX.s 			page 5


 151              		@ args = 0, pretend = 0, frame = 0
 152              		@ frame_needed = 0, uses_anonymous_args = 0
 153 0000 08B5     		push	{r3, lr}
 154              	.LCFI1:
 155              		.cfi_def_cfa_offset 8
 156              		.cfi_offset 3, -8
 157              		.cfi_offset 14, -4
  78:Core/Src/usart.c **** 
  79:Core/Src/usart.c ****   /* USER CODE BEGIN USART6_Init 0 */
  80:Core/Src/usart.c **** 
  81:Core/Src/usart.c ****   /* USER CODE END USART6_Init 0 */
  82:Core/Src/usart.c **** 
  83:Core/Src/usart.c ****   /* USER CODE BEGIN USART6_Init 1 */
  84:Core/Src/usart.c **** 
  85:Core/Src/usart.c ****   /* USER CODE END USART6_Init 1 */
  86:Core/Src/usart.c ****   huart6.Instance = USART6;
 158              		.loc 1 86 3 view .LVU42
 159              		.loc 1 86 19 is_stmt 0 view .LVU43
 160 0002 1748     		ldr	r0, .L23
 161 0004 174B     		ldr	r3, .L23+4
 162 0006 0360     		str	r3, [r0]
  87:Core/Src/usart.c ****   huart6.Init.BaudRate = 115200;
 163              		.loc 1 87 3 is_stmt 1 view .LVU44
 164              		.loc 1 87 24 is_stmt 0 view .LVU45
 165 0008 4FF4E133 		mov	r3, #115200
 166 000c 4360     		str	r3, [r0, #4]
  88:Core/Src/usart.c ****   huart6.Init.WordLength = UART_WORDLENGTH_8B;
 167              		.loc 1 88 3 is_stmt 1 view .LVU46
 168              		.loc 1 88 26 is_stmt 0 view .LVU47
 169 000e 0023     		movs	r3, #0
 170 0010 8360     		str	r3, [r0, #8]
  89:Core/Src/usart.c ****   huart6.Init.StopBits = UART_STOPBITS_1;
 171              		.loc 1 89 3 is_stmt 1 view .LVU48
 172              		.loc 1 89 24 is_stmt 0 view .LVU49
 173 0012 C360     		str	r3, [r0, #12]
  90:Core/Src/usart.c ****   huart6.Init.Parity = UART_PARITY_NONE;
 174              		.loc 1 90 3 is_stmt 1 view .LVU50
 175              		.loc 1 90 22 is_stmt 0 view .LVU51
 176 0014 0361     		str	r3, [r0, #16]
  91:Core/Src/usart.c ****   huart6.Init.Mode = UART_MODE_TX_RX;
 177              		.loc 1 91 3 is_stmt 1 view .LVU52
 178              		.loc 1 91 20 is_stmt 0 view .LVU53
 179 0016 0C22     		movs	r2, #12
 180 0018 4261     		str	r2, [r0, #20]
  92:Core/Src/usart.c ****   huart6.Init.HwFlowCtl = UART_HWCONTROL_NONE;
 181              		.loc 1 92 3 is_stmt 1 view .LVU54
 182              		.loc 1 92 25 is_stmt 0 view .LVU55
 183 001a 8361     		str	r3, [r0, #24]
  93:Core/Src/usart.c ****   huart6.Init.OverSampling = UART_OVERSAMPLING_16;
 184              		.loc 1 93 3 is_stmt 1 view .LVU56
 185              		.loc 1 93 28 is_stmt 0 view .LVU57
 186 001c C361     		str	r3, [r0, #28]
  94:Core/Src/usart.c ****   huart6.Init.OneBitSampling = UART_ONE_BIT_SAMPLE_DISABLE;
 187              		.loc 1 94 3 is_stmt 1 view .LVU58
 188              		.loc 1 94 30 is_stmt 0 view .LVU59
 189 001e 0362     		str	r3, [r0, #32]
  95:Core/Src/usart.c ****   huart6.Init.ClockPrescaler = UART_PRESCALER_DIV1;
ARM GAS  C:\Users\Joknem\AppData\Local\Temp\ccCFqtCX.s 			page 6


 190              		.loc 1 95 3 is_stmt 1 view .LVU60
 191              		.loc 1 95 30 is_stmt 0 view .LVU61
 192 0020 4362     		str	r3, [r0, #36]
  96:Core/Src/usart.c ****   huart6.AdvancedInit.AdvFeatureInit = UART_ADVFEATURE_NO_INIT;
 193              		.loc 1 96 3 is_stmt 1 view .LVU62
 194              		.loc 1 96 38 is_stmt 0 view .LVU63
 195 0022 8362     		str	r3, [r0, #40]
  97:Core/Src/usart.c ****   if (HAL_UART_Init(&huart6) != HAL_OK)
 196              		.loc 1 97 3 is_stmt 1 view .LVU64
 197              		.loc 1 97 7 is_stmt 0 view .LVU65
 198 0024 FFF7FEFF 		bl	HAL_UART_Init
 199              	.LVL8:
 200              		.loc 1 97 6 view .LVU66
 201 0028 70B9     		cbnz	r0, .L19
 202              	.L14:
  98:Core/Src/usart.c ****   {
  99:Core/Src/usart.c ****     Error_Handler();
 100:Core/Src/usart.c ****   }
 101:Core/Src/usart.c ****   if (HAL_UARTEx_SetTxFifoThreshold(&huart6, UART_TXFIFO_THRESHOLD_1_8) != HAL_OK)
 203              		.loc 1 101 3 is_stmt 1 view .LVU67
 204              		.loc 1 101 7 is_stmt 0 view .LVU68
 205 002a 0021     		movs	r1, #0
 206 002c 0C48     		ldr	r0, .L23
 207 002e FFF7FEFF 		bl	HAL_UARTEx_SetTxFifoThreshold
 208              	.LVL9:
 209              		.loc 1 101 6 view .LVU69
 210 0032 60B9     		cbnz	r0, .L20
 211              	.L15:
 102:Core/Src/usart.c ****   {
 103:Core/Src/usart.c ****     Error_Handler();
 104:Core/Src/usart.c ****   }
 105:Core/Src/usart.c ****   if (HAL_UARTEx_SetRxFifoThreshold(&huart6, UART_RXFIFO_THRESHOLD_1_8) != HAL_OK)
 212              		.loc 1 105 3 is_stmt 1 view .LVU70
 213              		.loc 1 105 7 is_stmt 0 view .LVU71
 214 0034 0021     		movs	r1, #0
 215 0036 0A48     		ldr	r0, .L23
 216 0038 FFF7FEFF 		bl	HAL_UARTEx_SetRxFifoThreshold
 217              	.LVL10:
 218              		.loc 1 105 6 view .LVU72
 219 003c 50B9     		cbnz	r0, .L21
 220              	.L16:
 106:Core/Src/usart.c ****   {
 107:Core/Src/usart.c ****     Error_Handler();
 108:Core/Src/usart.c ****   }
 109:Core/Src/usart.c ****   if (HAL_UARTEx_DisableFifoMode(&huart6) != HAL_OK)
 221              		.loc 1 109 3 is_stmt 1 view .LVU73
 222              		.loc 1 109 7 is_stmt 0 view .LVU74
 223 003e 0848     		ldr	r0, .L23
 224 0040 FFF7FEFF 		bl	HAL_UARTEx_DisableFifoMode
 225              	.LVL11:
 226              		.loc 1 109 6 view .LVU75
 227 0044 48B9     		cbnz	r0, .L22
 228              	.L13:
 110:Core/Src/usart.c ****   {
 111:Core/Src/usart.c ****     Error_Handler();
 112:Core/Src/usart.c ****   }
 113:Core/Src/usart.c ****   /* USER CODE BEGIN USART6_Init 2 */
ARM GAS  C:\Users\Joknem\AppData\Local\Temp\ccCFqtCX.s 			page 7


 114:Core/Src/usart.c **** 
 115:Core/Src/usart.c ****   /* USER CODE END USART6_Init 2 */
 116:Core/Src/usart.c **** 
 117:Core/Src/usart.c **** }
 229              		.loc 1 117 1 view .LVU76
 230 0046 08BD     		pop	{r3, pc}
 231              	.L19:
  99:Core/Src/usart.c ****   }
 232              		.loc 1 99 5 is_stmt 1 view .LVU77
 233 0048 FFF7FEFF 		bl	Error_Handler
 234              	.LVL12:
 235 004c EDE7     		b	.L14
 236              	.L20:
 103:Core/Src/usart.c ****   }
 237              		.loc 1 103 5 view .LVU78
 238 004e FFF7FEFF 		bl	Error_Handler
 239              	.LVL13:
 240 0052 EFE7     		b	.L15
 241              	.L21:
 107:Core/Src/usart.c ****   }
 242              		.loc 1 107 5 view .LVU79
 243 0054 FFF7FEFF 		bl	Error_Handler
 244              	.LVL14:
 245 0058 F1E7     		b	.L16
 246              	.L22:
 111:Core/Src/usart.c ****   }
 247              		.loc 1 111 5 view .LVU80
 248 005a FFF7FEFF 		bl	Error_Handler
 249              	.LVL15:
 250              		.loc 1 117 1 is_stmt 0 view .LVU81
 251 005e F2E7     		b	.L13
 252              	.L24:
 253              		.align	2
 254              	.L23:
 255 0060 00000000 		.word	.LANCHOR1
 256 0064 00140140 		.word	1073812480
 257              		.cfi_endproc
 258              	.LFE186:
 260              		.section	.text.HAL_UART_MspInit,"ax",%progbits
 261              		.align	1
 262              		.global	HAL_UART_MspInit
 263              		.syntax unified
 264              		.thumb
 265              		.thumb_func
 266              		.fpu fpv5-d16
 268              	HAL_UART_MspInit:
 269              	.LVL16:
 270              	.LFB187:
 118:Core/Src/usart.c **** 
 119:Core/Src/usart.c **** void HAL_UART_MspInit(UART_HandleTypeDef* uartHandle)
 120:Core/Src/usart.c **** {
 271              		.loc 1 120 1 is_stmt 1 view -0
 272              		.cfi_startproc
 273              		@ args = 0, pretend = 0, frame = 224
 274              		@ frame_needed = 0, uses_anonymous_args = 0
 275              		.loc 1 120 1 is_stmt 0 view .LVU83
 276 0000 10B5     		push	{r4, lr}
ARM GAS  C:\Users\Joknem\AppData\Local\Temp\ccCFqtCX.s 			page 8


 277              	.LCFI2:
 278              		.cfi_def_cfa_offset 8
 279              		.cfi_offset 4, -8
 280              		.cfi_offset 14, -4
 281 0002 B8B0     		sub	sp, sp, #224
 282              	.LCFI3:
 283              		.cfi_def_cfa_offset 232
 284 0004 0446     		mov	r4, r0
 121:Core/Src/usart.c **** 
 122:Core/Src/usart.c ****   GPIO_InitTypeDef GPIO_InitStruct = {0};
 285              		.loc 1 122 3 is_stmt 1 view .LVU84
 286              		.loc 1 122 20 is_stmt 0 view .LVU85
 287 0006 0021     		movs	r1, #0
 288 0008 3391     		str	r1, [sp, #204]
 289 000a 3491     		str	r1, [sp, #208]
 290 000c 3591     		str	r1, [sp, #212]
 291 000e 3691     		str	r1, [sp, #216]
 292 0010 3791     		str	r1, [sp, #220]
 123:Core/Src/usart.c ****   RCC_PeriphCLKInitTypeDef PeriphClkInitStruct = {0};
 293              		.loc 1 123 3 is_stmt 1 view .LVU86
 294              		.loc 1 123 28 is_stmt 0 view .LVU87
 295 0012 BC22     		movs	r2, #188
 296 0014 04A8     		add	r0, sp, #16
 297              	.LVL17:
 298              		.loc 1 123 28 view .LVU88
 299 0016 FFF7FEFF 		bl	memset
 300              	.LVL18:
 124:Core/Src/usart.c ****   if(uartHandle->Instance==USART1)
 301              		.loc 1 124 3 is_stmt 1 view .LVU89
 302              		.loc 1 124 16 is_stmt 0 view .LVU90
 303 001a 2368     		ldr	r3, [r4]
 304              		.loc 1 124 5 view .LVU91
 305 001c 344A     		ldr	r2, .L35
 306 001e 9342     		cmp	r3, r2
 307 0020 04D0     		beq	.L31
 125:Core/Src/usart.c ****   {
 126:Core/Src/usart.c ****   /* USER CODE BEGIN USART1_MspInit 0 */
 127:Core/Src/usart.c **** 
 128:Core/Src/usart.c ****   /* USER CODE END USART1_MspInit 0 */
 129:Core/Src/usart.c ****   /** Initializes the peripherals clock
 130:Core/Src/usart.c ****   */
 131:Core/Src/usart.c ****     PeriphClkInitStruct.PeriphClockSelection = RCC_PERIPHCLK_USART1;
 132:Core/Src/usart.c ****     PeriphClkInitStruct.Usart16ClockSelection = RCC_USART16CLKSOURCE_D2PCLK2;
 133:Core/Src/usart.c ****     if (HAL_RCCEx_PeriphCLKConfig(&PeriphClkInitStruct) != HAL_OK)
 134:Core/Src/usart.c ****     {
 135:Core/Src/usart.c ****       Error_Handler();
 136:Core/Src/usart.c ****     }
 137:Core/Src/usart.c **** 
 138:Core/Src/usart.c ****     /* USART1 clock enable */
 139:Core/Src/usart.c ****     __HAL_RCC_USART1_CLK_ENABLE();
 140:Core/Src/usart.c **** 
 141:Core/Src/usart.c ****     __HAL_RCC_GPIOA_CLK_ENABLE();
 142:Core/Src/usart.c ****     /**USART1 GPIO Configuration
 143:Core/Src/usart.c ****     PA9     ------> USART1_TX
 144:Core/Src/usart.c ****     PA10     ------> USART1_RX
 145:Core/Src/usart.c ****     */
 146:Core/Src/usart.c ****     GPIO_InitStruct.Pin = GPIO_PIN_9|GPIO_PIN_10;
ARM GAS  C:\Users\Joknem\AppData\Local\Temp\ccCFqtCX.s 			page 9


 147:Core/Src/usart.c ****     GPIO_InitStruct.Mode = GPIO_MODE_AF_PP;
 148:Core/Src/usart.c ****     GPIO_InitStruct.Pull = GPIO_NOPULL;
 149:Core/Src/usart.c ****     GPIO_InitStruct.Speed = GPIO_SPEED_FREQ_LOW;
 150:Core/Src/usart.c ****     GPIO_InitStruct.Alternate = GPIO_AF7_USART1;
 151:Core/Src/usart.c ****     HAL_GPIO_Init(GPIOA, &GPIO_InitStruct);
 152:Core/Src/usart.c **** 
 153:Core/Src/usart.c ****   /* USER CODE BEGIN USART1_MspInit 1 */
 154:Core/Src/usart.c **** 
 155:Core/Src/usart.c ****   /* USER CODE END USART1_MspInit 1 */
 156:Core/Src/usart.c ****   }
 157:Core/Src/usart.c ****   else if(uartHandle->Instance==USART6)
 308              		.loc 1 157 8 is_stmt 1 view .LVU92
 309              		.loc 1 157 10 is_stmt 0 view .LVU93
 310 0022 344A     		ldr	r2, .L35+4
 311 0024 9342     		cmp	r3, r2
 312 0026 32D0     		beq	.L32
 313              	.L25:
 158:Core/Src/usart.c ****   {
 159:Core/Src/usart.c ****   /* USER CODE BEGIN USART6_MspInit 0 */
 160:Core/Src/usart.c **** 
 161:Core/Src/usart.c ****   /* USER CODE END USART6_MspInit 0 */
 162:Core/Src/usart.c **** 
 163:Core/Src/usart.c ****   /** Initializes the peripherals clock
 164:Core/Src/usart.c ****   */
 165:Core/Src/usart.c ****     PeriphClkInitStruct.PeriphClockSelection = RCC_PERIPHCLK_USART6;
 166:Core/Src/usart.c ****     PeriphClkInitStruct.Usart16ClockSelection = RCC_USART16CLKSOURCE_D2PCLK2;
 167:Core/Src/usart.c ****     if (HAL_RCCEx_PeriphCLKConfig(&PeriphClkInitStruct) != HAL_OK)
 168:Core/Src/usart.c ****     {
 169:Core/Src/usart.c ****       Error_Handler();
 170:Core/Src/usart.c ****     }
 171:Core/Src/usart.c **** 
 172:Core/Src/usart.c ****     /* USART6 clock enable */
 173:Core/Src/usart.c ****     __HAL_RCC_USART6_CLK_ENABLE();
 174:Core/Src/usart.c **** 
 175:Core/Src/usart.c ****     __HAL_RCC_GPIOC_CLK_ENABLE();
 176:Core/Src/usart.c ****     /**USART6 GPIO Configuration
 177:Core/Src/usart.c ****     PC6     ------> USART6_TX
 178:Core/Src/usart.c ****     PC7     ------> USART6_RX
 179:Core/Src/usart.c ****     */
 180:Core/Src/usart.c ****     GPIO_InitStruct.Pin = GPIO_PIN_6|GPIO_PIN_7;
 181:Core/Src/usart.c ****     GPIO_InitStruct.Mode = GPIO_MODE_AF_PP;
 182:Core/Src/usart.c ****     GPIO_InitStruct.Pull = GPIO_NOPULL;
 183:Core/Src/usart.c ****     GPIO_InitStruct.Speed = GPIO_SPEED_FREQ_LOW;
 184:Core/Src/usart.c ****     GPIO_InitStruct.Alternate = GPIO_AF7_USART6;
 185:Core/Src/usart.c ****     HAL_GPIO_Init(GPIOC, &GPIO_InitStruct);
 186:Core/Src/usart.c **** 
 187:Core/Src/usart.c ****   /* USER CODE BEGIN USART6_MspInit 1 */
 188:Core/Src/usart.c **** 
 189:Core/Src/usart.c ****   /* USER CODE END USART6_MspInit 1 */
 190:Core/Src/usart.c ****   }
 191:Core/Src/usart.c **** }
 314              		.loc 1 191 1 view .LVU94
 315 0028 38B0     		add	sp, sp, #224
 316              	.LCFI4:
 317              		.cfi_remember_state
 318              		.cfi_def_cfa_offset 8
 319              		@ sp needed
ARM GAS  C:\Users\Joknem\AppData\Local\Temp\ccCFqtCX.s 			page 10


 320 002a 10BD     		pop	{r4, pc}
 321              	.LVL19:
 322              	.L31:
 323              	.LCFI5:
 324              		.cfi_restore_state
 131:Core/Src/usart.c ****     PeriphClkInitStruct.Usart16ClockSelection = RCC_USART16CLKSOURCE_D2PCLK2;
 325              		.loc 1 131 5 is_stmt 1 view .LVU95
 131:Core/Src/usart.c ****     PeriphClkInitStruct.Usart16ClockSelection = RCC_USART16CLKSOURCE_D2PCLK2;
 326              		.loc 1 131 46 is_stmt 0 view .LVU96
 327 002c 0123     		movs	r3, #1
 328 002e 0493     		str	r3, [sp, #16]
 132:Core/Src/usart.c ****     if (HAL_RCCEx_PeriphCLKConfig(&PeriphClkInitStruct) != HAL_OK)
 329              		.loc 1 132 5 is_stmt 1 view .LVU97
 133:Core/Src/usart.c ****     {
 330              		.loc 1 133 5 view .LVU98
 133:Core/Src/usart.c ****     {
 331              		.loc 1 133 9 is_stmt 0 view .LVU99
 332 0030 04A8     		add	r0, sp, #16
 333 0032 FFF7FEFF 		bl	HAL_RCCEx_PeriphCLKConfig
 334              	.LVL20:
 133:Core/Src/usart.c ****     {
 335              		.loc 1 133 8 view .LVU100
 336 0036 38BB     		cbnz	r0, .L33
 337              	.L27:
 139:Core/Src/usart.c **** 
 338              		.loc 1 139 5 is_stmt 1 view .LVU101
 339              	.LBB2:
 139:Core/Src/usart.c **** 
 340              		.loc 1 139 5 view .LVU102
 139:Core/Src/usart.c **** 
 341              		.loc 1 139 5 view .LVU103
 342 0038 2F4B     		ldr	r3, .L35+8
 343 003a D3F8F020 		ldr	r2, [r3, #240]
 344 003e 42F01002 		orr	r2, r2, #16
 345 0042 C3F8F020 		str	r2, [r3, #240]
 139:Core/Src/usart.c **** 
 346              		.loc 1 139 5 view .LVU104
 347 0046 D3F8F020 		ldr	r2, [r3, #240]
 348 004a 02F01002 		and	r2, r2, #16
 349 004e 0092     		str	r2, [sp]
 139:Core/Src/usart.c **** 
 350              		.loc 1 139 5 view .LVU105
 351 0050 009A     		ldr	r2, [sp]
 352              	.LBE2:
 139:Core/Src/usart.c **** 
 353              		.loc 1 139 5 view .LVU106
 141:Core/Src/usart.c ****     /**USART1 GPIO Configuration
 354              		.loc 1 141 5 view .LVU107
 355              	.LBB3:
 141:Core/Src/usart.c ****     /**USART1 GPIO Configuration
 356              		.loc 1 141 5 view .LVU108
 141:Core/Src/usart.c ****     /**USART1 GPIO Configuration
 357              		.loc 1 141 5 view .LVU109
 358 0052 D3F8E020 		ldr	r2, [r3, #224]
 359 0056 42F00102 		orr	r2, r2, #1
 360 005a C3F8E020 		str	r2, [r3, #224]
 141:Core/Src/usart.c ****     /**USART1 GPIO Configuration
ARM GAS  C:\Users\Joknem\AppData\Local\Temp\ccCFqtCX.s 			page 11


 361              		.loc 1 141 5 view .LVU110
 362 005e D3F8E030 		ldr	r3, [r3, #224]
 363 0062 03F00103 		and	r3, r3, #1
 364 0066 0193     		str	r3, [sp, #4]
 141:Core/Src/usart.c ****     /**USART1 GPIO Configuration
 365              		.loc 1 141 5 view .LVU111
 366 0068 019B     		ldr	r3, [sp, #4]
 367              	.LBE3:
 141:Core/Src/usart.c ****     /**USART1 GPIO Configuration
 368              		.loc 1 141 5 view .LVU112
 146:Core/Src/usart.c ****     GPIO_InitStruct.Mode = GPIO_MODE_AF_PP;
 369              		.loc 1 146 5 view .LVU113
 146:Core/Src/usart.c ****     GPIO_InitStruct.Mode = GPIO_MODE_AF_PP;
 370              		.loc 1 146 25 is_stmt 0 view .LVU114
 371 006a 4FF4C063 		mov	r3, #1536
 372 006e 3393     		str	r3, [sp, #204]
 147:Core/Src/usart.c ****     GPIO_InitStruct.Pull = GPIO_NOPULL;
 373              		.loc 1 147 5 is_stmt 1 view .LVU115
 147:Core/Src/usart.c ****     GPIO_InitStruct.Pull = GPIO_NOPULL;
 374              		.loc 1 147 26 is_stmt 0 view .LVU116
 375 0070 0223     		movs	r3, #2
 376 0072 3493     		str	r3, [sp, #208]
 148:Core/Src/usart.c ****     GPIO_InitStruct.Speed = GPIO_SPEED_FREQ_LOW;
 377              		.loc 1 148 5 is_stmt 1 view .LVU117
 148:Core/Src/usart.c ****     GPIO_InitStruct.Speed = GPIO_SPEED_FREQ_LOW;
 378              		.loc 1 148 26 is_stmt 0 view .LVU118
 379 0074 0023     		movs	r3, #0
 380 0076 3593     		str	r3, [sp, #212]
 149:Core/Src/usart.c ****     GPIO_InitStruct.Alternate = GPIO_AF7_USART1;
 381              		.loc 1 149 5 is_stmt 1 view .LVU119
 149:Core/Src/usart.c ****     GPIO_InitStruct.Alternate = GPIO_AF7_USART1;
 382              		.loc 1 149 27 is_stmt 0 view .LVU120
 383 0078 3693     		str	r3, [sp, #216]
 150:Core/Src/usart.c ****     HAL_GPIO_Init(GPIOA, &GPIO_InitStruct);
 384              		.loc 1 150 5 is_stmt 1 view .LVU121
 150:Core/Src/usart.c ****     HAL_GPIO_Init(GPIOA, &GPIO_InitStruct);
 385              		.loc 1 150 31 is_stmt 0 view .LVU122
 386 007a 0723     		movs	r3, #7
 387 007c 3793     		str	r3, [sp, #220]
 151:Core/Src/usart.c **** 
 388              		.loc 1 151 5 is_stmt 1 view .LVU123
 389 007e 33A9     		add	r1, sp, #204
 390 0080 1E48     		ldr	r0, .L35+12
 391 0082 FFF7FEFF 		bl	HAL_GPIO_Init
 392              	.LVL21:
 393 0086 CFE7     		b	.L25
 394              	.L33:
 135:Core/Src/usart.c ****     }
 395              		.loc 1 135 7 view .LVU124
 396 0088 FFF7FEFF 		bl	Error_Handler
 397              	.LVL22:
 398 008c D4E7     		b	.L27
 399              	.L32:
 165:Core/Src/usart.c ****     PeriphClkInitStruct.Usart16ClockSelection = RCC_USART16CLKSOURCE_D2PCLK2;
 400              		.loc 1 165 5 view .LVU125
 165:Core/Src/usart.c ****     PeriphClkInitStruct.Usart16ClockSelection = RCC_USART16CLKSOURCE_D2PCLK2;
 401              		.loc 1 165 46 is_stmt 0 view .LVU126
ARM GAS  C:\Users\Joknem\AppData\Local\Temp\ccCFqtCX.s 			page 12


 402 008e 0123     		movs	r3, #1
 403 0090 0493     		str	r3, [sp, #16]
 166:Core/Src/usart.c ****     if (HAL_RCCEx_PeriphCLKConfig(&PeriphClkInitStruct) != HAL_OK)
 404              		.loc 1 166 5 is_stmt 1 view .LVU127
 167:Core/Src/usart.c ****     {
 405              		.loc 1 167 5 view .LVU128
 167:Core/Src/usart.c ****     {
 406              		.loc 1 167 9 is_stmt 0 view .LVU129
 407 0092 04A8     		add	r0, sp, #16
 408 0094 FFF7FEFF 		bl	HAL_RCCEx_PeriphCLKConfig
 409              	.LVL23:
 167:Core/Src/usart.c ****     {
 410              		.loc 1 167 8 view .LVU130
 411 0098 30BB     		cbnz	r0, .L34
 412              	.L29:
 173:Core/Src/usart.c **** 
 413              		.loc 1 173 5 is_stmt 1 view .LVU131
 414              	.LBB4:
 173:Core/Src/usart.c **** 
 415              		.loc 1 173 5 view .LVU132
 173:Core/Src/usart.c **** 
 416              		.loc 1 173 5 view .LVU133
 417 009a 174B     		ldr	r3, .L35+8
 418 009c D3F8F020 		ldr	r2, [r3, #240]
 419 00a0 42F02002 		orr	r2, r2, #32
 420 00a4 C3F8F020 		str	r2, [r3, #240]
 173:Core/Src/usart.c **** 
 421              		.loc 1 173 5 view .LVU134
 422 00a8 D3F8F020 		ldr	r2, [r3, #240]
 423 00ac 02F02002 		and	r2, r2, #32
 424 00b0 0292     		str	r2, [sp, #8]
 173:Core/Src/usart.c **** 
 425              		.loc 1 173 5 view .LVU135
 426 00b2 029A     		ldr	r2, [sp, #8]
 427              	.LBE4:
 173:Core/Src/usart.c **** 
 428              		.loc 1 173 5 view .LVU136
 175:Core/Src/usart.c ****     /**USART6 GPIO Configuration
 429              		.loc 1 175 5 view .LVU137
 430              	.LBB5:
 175:Core/Src/usart.c ****     /**USART6 GPIO Configuration
 431              		.loc 1 175 5 view .LVU138
 175:Core/Src/usart.c ****     /**USART6 GPIO Configuration
 432              		.loc 1 175 5 view .LVU139
 433 00b4 D3F8E020 		ldr	r2, [r3, #224]
 434 00b8 42F00402 		orr	r2, r2, #4
 435 00bc C3F8E020 		str	r2, [r3, #224]
 175:Core/Src/usart.c ****     /**USART6 GPIO Configuration
 436              		.loc 1 175 5 view .LVU140
 437 00c0 D3F8E030 		ldr	r3, [r3, #224]
 438 00c4 03F00403 		and	r3, r3, #4
 439 00c8 0393     		str	r3, [sp, #12]
 175:Core/Src/usart.c ****     /**USART6 GPIO Configuration
 440              		.loc 1 175 5 view .LVU141
 441 00ca 039B     		ldr	r3, [sp, #12]
 442              	.LBE5:
 175:Core/Src/usart.c ****     /**USART6 GPIO Configuration
ARM GAS  C:\Users\Joknem\AppData\Local\Temp\ccCFqtCX.s 			page 13


 443              		.loc 1 175 5 view .LVU142
 180:Core/Src/usart.c ****     GPIO_InitStruct.Mode = GPIO_MODE_AF_PP;
 444              		.loc 1 180 5 view .LVU143
 180:Core/Src/usart.c ****     GPIO_InitStruct.Mode = GPIO_MODE_AF_PP;
 445              		.loc 1 180 25 is_stmt 0 view .LVU144
 446 00cc C023     		movs	r3, #192
 447 00ce 3393     		str	r3, [sp, #204]
 181:Core/Src/usart.c ****     GPIO_InitStruct.Pull = GPIO_NOPULL;
 448              		.loc 1 181 5 is_stmt 1 view .LVU145
 181:Core/Src/usart.c ****     GPIO_InitStruct.Pull = GPIO_NOPULL;
 449              		.loc 1 181 26 is_stmt 0 view .LVU146
 450 00d0 0223     		movs	r3, #2
 451 00d2 3493     		str	r3, [sp, #208]
 182:Core/Src/usart.c ****     GPIO_InitStruct.Speed = GPIO_SPEED_FREQ_LOW;
 452              		.loc 1 182 5 is_stmt 1 view .LVU147
 182:Core/Src/usart.c ****     GPIO_InitStruct.Speed = GPIO_SPEED_FREQ_LOW;
 453              		.loc 1 182 26 is_stmt 0 view .LVU148
 454 00d4 0023     		movs	r3, #0
 455 00d6 3593     		str	r3, [sp, #212]
 183:Core/Src/usart.c ****     GPIO_InitStruct.Alternate = GPIO_AF7_USART6;
 456              		.loc 1 183 5 is_stmt 1 view .LVU149
 183:Core/Src/usart.c ****     GPIO_InitStruct.Alternate = GPIO_AF7_USART6;
 457              		.loc 1 183 27 is_stmt 0 view .LVU150
 458 00d8 3693     		str	r3, [sp, #216]
 184:Core/Src/usart.c ****     HAL_GPIO_Init(GPIOC, &GPIO_InitStruct);
 459              		.loc 1 184 5 is_stmt 1 view .LVU151
 184:Core/Src/usart.c ****     HAL_GPIO_Init(GPIOC, &GPIO_InitStruct);
 460              		.loc 1 184 31 is_stmt 0 view .LVU152
 461 00da 0723     		movs	r3, #7
 462 00dc 3793     		str	r3, [sp, #220]
 185:Core/Src/usart.c **** 
 463              		.loc 1 185 5 is_stmt 1 view .LVU153
 464 00de 33A9     		add	r1, sp, #204
 465 00e0 0748     		ldr	r0, .L35+16
 466 00e2 FFF7FEFF 		bl	HAL_GPIO_Init
 467              	.LVL24:
 468              		.loc 1 191 1 is_stmt 0 view .LVU154
 469 00e6 9FE7     		b	.L25
 470              	.L34:
 169:Core/Src/usart.c ****     }
 471              		.loc 1 169 7 is_stmt 1 view .LVU155
 472 00e8 FFF7FEFF 		bl	Error_Handler
 473              	.LVL25:
 474 00ec D5E7     		b	.L29
 475              	.L36:
 476 00ee 00BF     		.align	2
 477              	.L35:
 478 00f0 00100140 		.word	1073811456
 479 00f4 00140140 		.word	1073812480
 480 00f8 00440258 		.word	1476543488
 481 00fc 00000258 		.word	1476526080
 482 0100 00080258 		.word	1476528128
 483              		.cfi_endproc
 484              	.LFE187:
 486              		.section	.text.HAL_UART_MspDeInit,"ax",%progbits
 487              		.align	1
 488              		.global	HAL_UART_MspDeInit
ARM GAS  C:\Users\Joknem\AppData\Local\Temp\ccCFqtCX.s 			page 14


 489              		.syntax unified
 490              		.thumb
 491              		.thumb_func
 492              		.fpu fpv5-d16
 494              	HAL_UART_MspDeInit:
 495              	.LVL26:
 496              	.LFB188:
 192:Core/Src/usart.c **** 
 193:Core/Src/usart.c **** void HAL_UART_MspDeInit(UART_HandleTypeDef* uartHandle)
 194:Core/Src/usart.c **** {
 497              		.loc 1 194 1 view -0
 498              		.cfi_startproc
 499              		@ args = 0, pretend = 0, frame = 0
 500              		@ frame_needed = 0, uses_anonymous_args = 0
 501              		.loc 1 194 1 is_stmt 0 view .LVU157
 502 0000 08B5     		push	{r3, lr}
 503              	.LCFI6:
 504              		.cfi_def_cfa_offset 8
 505              		.cfi_offset 3, -8
 506              		.cfi_offset 14, -4
 195:Core/Src/usart.c **** 
 196:Core/Src/usart.c ****   if(uartHandle->Instance==USART1)
 507              		.loc 1 196 3 is_stmt 1 view .LVU158
 508              		.loc 1 196 16 is_stmt 0 view .LVU159
 509 0002 0368     		ldr	r3, [r0]
 510              		.loc 1 196 5 view .LVU160
 511 0004 0F4A     		ldr	r2, .L43
 512 0006 9342     		cmp	r3, r2
 513 0008 03D0     		beq	.L41
 197:Core/Src/usart.c ****   {
 198:Core/Src/usart.c ****   /* USER CODE BEGIN USART1_MspDeInit 0 */
 199:Core/Src/usart.c **** 
 200:Core/Src/usart.c ****   /* USER CODE END USART1_MspDeInit 0 */
 201:Core/Src/usart.c ****     /* Peripheral clock disable */
 202:Core/Src/usart.c ****     __HAL_RCC_USART1_CLK_DISABLE();
 203:Core/Src/usart.c **** 
 204:Core/Src/usart.c ****     /**USART1 GPIO Configuration
 205:Core/Src/usart.c ****     PA9     ------> USART1_TX
 206:Core/Src/usart.c ****     PA10     ------> USART1_RX
 207:Core/Src/usart.c ****     */
 208:Core/Src/usart.c ****     HAL_GPIO_DeInit(GPIOA, GPIO_PIN_9|GPIO_PIN_10);
 209:Core/Src/usart.c **** 
 210:Core/Src/usart.c ****   /* USER CODE BEGIN USART1_MspDeInit 1 */
 211:Core/Src/usart.c **** 
 212:Core/Src/usart.c ****   /* USER CODE END USART1_MspDeInit 1 */
 213:Core/Src/usart.c ****   }
 214:Core/Src/usart.c ****   else if(uartHandle->Instance==USART6)
 514              		.loc 1 214 8 is_stmt 1 view .LVU161
 515              		.loc 1 214 10 is_stmt 0 view .LVU162
 516 000a 0F4A     		ldr	r2, .L43+4
 517 000c 9342     		cmp	r3, r2
 518 000e 0DD0     		beq	.L42
 519              	.LVL27:
 520              	.L37:
 215:Core/Src/usart.c ****   {
 216:Core/Src/usart.c ****   /* USER CODE BEGIN USART6_MspDeInit 0 */
 217:Core/Src/usart.c **** 
ARM GAS  C:\Users\Joknem\AppData\Local\Temp\ccCFqtCX.s 			page 15


 218:Core/Src/usart.c ****   /* USER CODE END USART6_MspDeInit 0 */
 219:Core/Src/usart.c ****     /* Peripheral clock disable */
 220:Core/Src/usart.c ****     __HAL_RCC_USART6_CLK_DISABLE();
 221:Core/Src/usart.c **** 
 222:Core/Src/usart.c ****     /**USART6 GPIO Configuration
 223:Core/Src/usart.c ****     PC6     ------> USART6_TX
 224:Core/Src/usart.c ****     PC7     ------> USART6_RX
 225:Core/Src/usart.c ****     */
 226:Core/Src/usart.c ****     HAL_GPIO_DeInit(GPIOC, GPIO_PIN_6|GPIO_PIN_7);
 227:Core/Src/usart.c **** 
 228:Core/Src/usart.c ****   /* USER CODE BEGIN USART6_MspDeInit 1 */
 229:Core/Src/usart.c **** 
 230:Core/Src/usart.c ****   /* USER CODE END USART6_MspDeInit 1 */
 231:Core/Src/usart.c ****   }
 232:Core/Src/usart.c **** }
 521              		.loc 1 232 1 view .LVU163
 522 0010 08BD     		pop	{r3, pc}
 523              	.LVL28:
 524              	.L41:
 202:Core/Src/usart.c **** 
 525              		.loc 1 202 5 is_stmt 1 view .LVU164
 526 0012 0E4A     		ldr	r2, .L43+8
 527 0014 D2F8F030 		ldr	r3, [r2, #240]
 528 0018 23F01003 		bic	r3, r3, #16
 529 001c C2F8F030 		str	r3, [r2, #240]
 208:Core/Src/usart.c **** 
 530              		.loc 1 208 5 view .LVU165
 531 0020 4FF4C061 		mov	r1, #1536
 532 0024 0A48     		ldr	r0, .L43+12
 533              	.LVL29:
 208:Core/Src/usart.c **** 
 534              		.loc 1 208 5 is_stmt 0 view .LVU166
 535 0026 FFF7FEFF 		bl	HAL_GPIO_DeInit
 536              	.LVL30:
 537 002a F1E7     		b	.L37
 538              	.LVL31:
 539              	.L42:
 220:Core/Src/usart.c **** 
 540              		.loc 1 220 5 is_stmt 1 view .LVU167
 541 002c 074A     		ldr	r2, .L43+8
 542 002e D2F8F030 		ldr	r3, [r2, #240]
 543 0032 23F02003 		bic	r3, r3, #32
 544 0036 C2F8F030 		str	r3, [r2, #240]
 226:Core/Src/usart.c **** 
 545              		.loc 1 226 5 view .LVU168
 546 003a C021     		movs	r1, #192
 547 003c 0548     		ldr	r0, .L43+16
 548              	.LVL32:
 226:Core/Src/usart.c **** 
 549              		.loc 1 226 5 is_stmt 0 view .LVU169
 550 003e FFF7FEFF 		bl	HAL_GPIO_DeInit
 551              	.LVL33:
 552              		.loc 1 232 1 view .LVU170
 553 0042 E5E7     		b	.L37
 554              	.L44:
 555              		.align	2
 556              	.L43:
ARM GAS  C:\Users\Joknem\AppData\Local\Temp\ccCFqtCX.s 			page 16


 557 0044 00100140 		.word	1073811456
 558 0048 00140140 		.word	1073812480
 559 004c 00440258 		.word	1476543488
 560 0050 00000258 		.word	1476526080
 561 0054 00080258 		.word	1476528128
 562              		.cfi_endproc
 563              	.LFE188:
 565              		.global	huart6
 566              		.global	huart1
 567              		.section	.bss.huart1,"aw",%nobits
 568              		.align	2
 569              		.set	.LANCHOR0,. + 0
 572              	huart1:
 573 0000 00000000 		.space	144
 573      00000000 
 573      00000000 
 573      00000000 
 573      00000000 
 574              		.section	.bss.huart6,"aw",%nobits
 575              		.align	2
 576              		.set	.LANCHOR1,. + 0
 579              	huart6:
 580 0000 00000000 		.space	144
 580      00000000 
 580      00000000 
 580      00000000 
 580      00000000 
 581              		.text
 582              	.Letext0:
 583              		.file 2 "c:\\program files (x86)\\gnu arm embedded toolchain\\10 2021.07\\arm-none-eabi\\include\\
 584              		.file 3 "c:\\program files (x86)\\gnu arm embedded toolchain\\10 2021.07\\arm-none-eabi\\include\\
 585              		.file 4 "Drivers/CMSIS/Device/ST/STM32H7xx/Include/stm32h743xx.h"
 586              		.file 5 "Drivers/STM32H7xx_HAL_Driver/Inc/stm32h7xx_hal_def.h"
 587              		.file 6 "Drivers/STM32H7xx_HAL_Driver/Inc/stm32h7xx_hal_rcc_ex.h"
 588              		.file 7 "Drivers/STM32H7xx_HAL_Driver/Inc/stm32h7xx_hal_gpio.h"
 589              		.file 8 "Drivers/STM32H7xx_HAL_Driver/Inc/stm32h7xx_hal_dma.h"
 590              		.file 9 "Drivers/STM32H7xx_HAL_Driver/Inc/stm32h7xx_hal_uart.h"
 591              		.file 10 "Core/Inc/usart.h"
 592              		.file 11 "Core/Inc/main.h"
 593              		.file 12 "Drivers/STM32H7xx_HAL_Driver/Inc/stm32h7xx_hal_uart_ex.h"
 594              		.file 13 "<built-in>"
ARM GAS  C:\Users\Joknem\AppData\Local\Temp\ccCFqtCX.s 			page 17

